
InterruptsNIOS.elf:     file format elf32-littlenios2
InterruptsNIOS.elf
architecture: nios2:r1, flags 0x00000112:
EXEC_P, HAS_SYMS, D_PAGED
start address 0x00000248

Program Header:
    LOAD off    0x00001000 vaddr 0x00000000 paddr 0x00000000 align 2**12
         filesz 0x00000020 memsz 0x00000020 flags r-x
    LOAD off    0x00001020 vaddr 0x00000020 paddr 0x00000020 align 2**12
         filesz 0x00004430 memsz 0x00004430 flags r-x
    LOAD off    0x00005450 vaddr 0x00004450 paddr 0x00005de4 align 2**12
         filesz 0x00001994 memsz 0x00001994 flags rw-
    LOAD off    0x00007778 vaddr 0x00007778 paddr 0x00007778 align 2**12
         filesz 0x00000000 memsz 0x00000128 flags rw-

Sections:
Idx Name          Size      VMA       LMA       File off  Algn
  0 .entry        00000020  00000000  00000000  00001000  2**5
                  CONTENTS, ALLOC, LOAD, READONLY, CODE
  1 .exceptions   00000228  00000020  00000020  00001020  2**2
                  CONTENTS, ALLOC, LOAD, READONLY, CODE
  2 .text         00004084  00000248  00000248  00001248  2**2
                  CONTENTS, ALLOC, LOAD, READONLY, CODE
  3 .rodata       00000184  000042cc  000042cc  000052cc  2**2
                  CONTENTS, ALLOC, LOAD, READONLY, DATA
  4 .rwdata       00001994  00004450  00005de4  00005450  2**2
                  CONTENTS, ALLOC, LOAD, DATA, SMALL_DATA
  5 .bss          00000128  00007778  00007778  00007778  2**2
                  ALLOC, SMALL_DATA
  6 .SDRAM        00000000  000078a0  000078a0  00006de4  2**0
                  CONTENTS
  7 .VGA_Subsystem_Char_Buf_Subsystem_Onchip_SRAM 00000000  09000000  09000000  00006de4  2**0
                  CONTENTS
  8 .comment      00000023  00000000  00000000  00006de4  2**0
                  CONTENTS, READONLY
  9 .debug_aranges 000006f8  00000000  00000000  00006e08  2**3
                  CONTENTS, READONLY, DEBUGGING
 10 .debug_info   000099c8  00000000  00000000  00007500  2**0
                  CONTENTS, READONLY, DEBUGGING
 11 .debug_abbrev 00003309  00000000  00000000  00010ec8  2**0
                  CONTENTS, READONLY, DEBUGGING
 12 .debug_line   00003780  00000000  00000000  000141d1  2**0
                  CONTENTS, READONLY, DEBUGGING
 13 .debug_frame  000013e0  00000000  00000000  00017954  2**2
                  CONTENTS, READONLY, DEBUGGING
 14 .debug_str    0000257e  00000000  00000000  00018d34  2**0
                  CONTENTS, READONLY, DEBUGGING
 15 .debug_loc    00000770  00000000  00000000  0001b2b2  2**0
                  CONTENTS, READONLY, DEBUGGING
 16 .debug_alt_sim_info 00000020  00000000  00000000  0001ba24  2**2
                  CONTENTS, READONLY, DEBUGGING
 17 .debug_ranges 00000178  00000000  00000000  0001ba48  2**3
                  CONTENTS, READONLY, DEBUGGING
 18 .thread_model 00000003  00000000  00000000  0001e3c6  2**0
                  CONTENTS, READONLY
 19 .cpu          00000005  00000000  00000000  0001e3c9  2**0
                  CONTENTS, READONLY
 20 .qsys         00000001  00000000  00000000  0001e3ce  2**0
                  CONTENTS, READONLY
 21 .simulation_enabled 00000001  00000000  00000000  0001e3cf  2**0
                  CONTENTS, READONLY
 22 .sysid_hash   00000004  00000000  00000000  0001e3d0  2**0
                  CONTENTS, READONLY
 23 .sysid_base   00000004  00000000  00000000  0001e3d4  2**0
                  CONTENTS, READONLY
 24 .sysid_time   00000004  00000000  00000000  0001e3d8  2**0
                  CONTENTS, READONLY
 25 .stderr_dev   00000009  00000000  00000000  0001e3dc  2**0
                  CONTENTS, READONLY
 26 .stdin_dev    00000009  00000000  00000000  0001e3e5  2**0
                  CONTENTS, READONLY
 27 .stdout_dev   00000009  00000000  00000000  0001e3ee  2**0
                  CONTENTS, READONLY
 28 .sopc_system_name 0000000b  00000000  00000000  0001e3f7  2**0
                  CONTENTS, READONLY
 29 .quartus_project_dir 00000059  00000000  00000000  0001e402  2**0
                  CONTENTS, READONLY
 30 .jdi          0000abc5  00000000  00000000  0001e45b  2**0
                  CONTENTS, READONLY
 31 .sopcinfo     001adce0  00000000  00000000  00029020  2**0
                  CONTENTS, READONLY
SYMBOL TABLE:
00000000 l    d  .entry	00000000 .entry
00000020 l    d  .exceptions	00000000 .exceptions
00000248 l    d  .text	00000000 .text
000042cc l    d  .rodata	00000000 .rodata
00004450 l    d  .rwdata	00000000 .rwdata
00007778 l    d  .bss	00000000 .bss
000078a0 l    d  .SDRAM	00000000 .SDRAM
09000000 l    d  .VGA_Subsystem_Char_Buf_Subsystem_Onchip_SRAM	00000000 .VGA_Subsystem_Char_Buf_Subsystem_Onchip_SRAM
00000000 l    d  .comment	00000000 .comment
00000000 l    d  .debug_aranges	00000000 .debug_aranges
00000000 l    d  .debug_info	00000000 .debug_info
00000000 l    d  .debug_abbrev	00000000 .debug_abbrev
00000000 l    d  .debug_line	00000000 .debug_line
00000000 l    d  .debug_frame	00000000 .debug_frame
00000000 l    d  .debug_str	00000000 .debug_str
00000000 l    d  .debug_loc	00000000 .debug_loc
00000000 l    d  .debug_alt_sim_info	00000000 .debug_alt_sim_info
00000000 l    d  .debug_ranges	00000000 .debug_ranges
00000000 l    df *ABS*	00000000 C:/Users/psmith04/Documents/FPGA/InterruptsNIOS_bsp//obj/HAL/src/crt0.o
00000280 l       .text	00000000 alt_after_alt_main
00000000 l    df *ABS*	00000000 alt_irq_handler.c
00000000 l    df *ABS*	00000000 alt_instruction_exception_entry.c
00000000 l    df *ABS*	00000000 HexDisplay.c
00000000 l    df *ABS*	00000000 InterruptDemo.c
00007778 l     O .bss	00000004 count.1835
00000000 l    df *ABS*	00000000 buttonISR.c
00000000 l    df *ABS*	00000000 lcd.c
00000000 l    df *ABS*	00000000 seven_seg_bcd.c
00000000 l    df *ABS*	00000000 seven_seg_hex.c
00000000 l    df *ABS*	00000000 timerISR.c
00000000 l    df *ABS*	00000000 memcpy.c
00000000 l    df *ABS*	00000000 alt_irq_register.c
00000000 l    df *ABS*	00000000 alt_irq_vars.c
00000000 l    df *ABS*	00000000 alt_load.c
00000d6c l     F .text	00000068 alt_load_section
00000000 l    df *ABS*	00000000 alt_main.c
00000000 l    df *ABS*	00000000 alt_sys_init.c
00000ed4 l     F .text	00000038 alt_dev_reg
00004450 l     O .rwdata	00001060 JTAG_UART
000054b0 l     O .rwdata	00000030 AV_Config
000054e0 l     O .rwdata	00000030 Audio_Subsystem_Audio
00005510 l     O .rwdata	0000002c Char_LCD_16x2
0000553c l     O .rwdata	0000002c IrDA
00005568 l     O .rwdata	0000002c Expansion_JP5
00005594 l     O .rwdata	0000002c Green_LEDs
000055c0 l     O .rwdata	0000002c HEX3_HEX0
000055ec l     O .rwdata	0000002c HEX7_HEX4
00005618 l     O .rwdata	0000002c Pushbuttons
00005644 l     O .rwdata	0000002c Red_LEDs
00005670 l     O .rwdata	0000002c Slider_Switches
0000569c l     O .rwdata	00000038 PS2_Port
000056d4 l     O .rwdata	00000038 PS2_Port_Dual
0000570c l     O .rwdata	0000002c Serial_Port
00005738 l     O .rwdata	00000034 USB
0000576c l     O .rwdata	00000054 VGA_Subsystem_VGA_Pixel_DMA
000057c0 l     O .rwdata	0000002c SD_Card
00000000 l    df *ABS*	00000000 altera_avalon_jtag_uart_fd.c
00000000 l    df *ABS*	00000000 altera_avalon_jtag_uart_init.c
00001488 l     F .text	00000210 altera_avalon_jtag_uart_irq
00001698 l     F .text	000000a8 altera_avalon_jtag_uart_timeout
00000000 l    df *ABS*	00000000 altera_avalon_jtag_uart_ioctl.c
00000000 l    df *ABS*	00000000 altera_avalon_jtag_uart_read.c
00000000 l    df *ABS*	00000000 altera_avalon_jtag_uart_write.c
00000000 l    df *ABS*	00000000 altera_avalon_timer_sc.c
00001cd8 l     F .text	0000007c alt_avalon_timer_sc_irq
00000000 l    df *ABS*	00000000 altera_up_avalon_character_lcd.c
00000000 l    df *ABS*	00000000 altera_up_avalon_irda.c
00000000 l    df *ABS*	00000000 altera_up_avalon_ps2.c
00000000 l    df *ABS*	00000000 altera_up_avalon_rs232.c
00000000 l    df *ABS*	00000000 alt_alarm_start.c
00000000 l    df *ABS*	00000000 alt_close.c
000031e8 l     F .text	00000050 alt_get_errno
00000000 l    df *ABS*	00000000 alt_dcache_flush_all.c
00000000 l    df *ABS*	00000000 alt_dev.c
00003328 l     F .text	0000002c alt_dev_null_write
00000000 l    df *ABS*	00000000 alt_dev_llist_insert.c
00003354 l     F .text	00000050 alt_get_errno
00000000 l    df *ABS*	00000000 alt_do_ctors.c
00000000 l    df *ABS*	00000000 alt_do_dtors.c
00000000 l    df *ABS*	00000000 alt_errno.c
00000000 l    df *ABS*	00000000 alt_find_dev.c
00000000 l    df *ABS*	00000000 alt_icache_flush_all.c
00000000 l    df *ABS*	00000000 alt_io_redirect.c
000035cc l     F .text	000000c4 alt_open_fd
00000000 l    df *ABS*	00000000 alt_open.c
0000370c l     F .text	00000050 alt_get_errno
0000375c l     F .text	000000cc alt_file_locked
00000000 l    df *ABS*	00000000 alt_release_fd.c
00000000 l    df *ABS*	00000000 alt_tick.c
00000000 l    df *ABS*	00000000 altera_nios2_gen2_irq.c
00000000 l    df *ABS*	00000000 alt_find_file.c
00000000 l    df *ABS*	00000000 alt_get_fd.c
00000000 l    df *ABS*	00000000 alt_icache_flush.c
00000000 l    df *ABS*	00000000 atexit.c
00000000 l    df *ABS*	00000000 exit.c
00000000 l    df *ABS*	00000000 impure.c
00005994 l     O .rwdata	00000424 impure_data
00000000 l    df *ABS*	00000000 int_errno.c
00000000 l    df *ABS*	00000000 memcmp.c
00000000 l    df *ABS*	00000000 strlen.c
00000000 l    df *ABS*	00000000 __atexit.c
00000000 l    df *ABS*	00000000 __call_atexit.c
00000000 l    df *ABS*	00000000 alt_exit.c
00007798 g     O .bss	00000004 alt_instruction_exception_handler
00000e58 g     F .text	0000007c alt_main
000028ac g     F .text	00000060 alt_up_ps2_disable_read_interrupt
000077a0 g     O .bss	00000100 alt_irq
000002c8 g     F .text	00000090 HexDisplay
00005de4 g       *ABS*	00000000 __flash_rwdata_start
00001e4c g     F .text	00000040 alt_up_character_lcd_send_cmd
000026c4 g     F .text	00000034 read_CE_bit
00002a4c g     F .text	0000009c alt_up_ps2_read_data_byte_timeout
00002f44 g     F .text	00000090 alt_up_rs232_read_fd
000004e4 g     F .text	0000006c LCD_cursor
00003b88 g     F .text	00000024 altera_nios2_gen2_irq_init
00001dd8 g     F .text	00000074 get_DDRAM_addr
00000000 g     F .entry	0000001c __reset
00000020 g       *ABS*	00000000 __flash_exceptions_start
0000779c g     O .bss	00000004 errno
00007788 g     O .bss	00000004 alt_argv
0000ddb8 g       *ABS*	00000000 _gp
00005814 g     O .rwdata	00000180 alt_fd_list
00003508 g     F .text	00000090 alt_find_dev
00000a74 g     F .text	00000148 memcpy
00001ff8 g     F .text	00000050 alt_up_character_lcd_write_fd
00003690 g     F .text	0000007c alt_io_redirect
000042cc g       *ABS*	00000000 __DTOR_END__
00002590 g     F .text	00000090 alt_up_irda_write_fd
00002ed0 g     F .text	00000074 alt_up_rs232_read_data
00003e04 g     F .text	0000009c alt_exception_cause_generated_bad_addr
0000238c g     F .text	00000040 alt_up_irda_get_used_space_in_read_FIFO
00001898 g     F .text	0000021c altera_avalon_jtag_uart_read
00000550 g     F .text	0000006c LCD_text
0000232c g     F .text	00000060 alt_up_irda_disable_read_interrupt
00003d74 g     F .text	00000090 alt_icache_flush
00005dcc g     O .rwdata	00000004 alt_max_fd
00002e4c g     F .text	00000044 alt_up_rs232_check_parity
000026f8 g     F .text	00000030 read_num_bytes_available
00000bbc g     F .text	000001b0 alt_irq_register
00002660 g     F .text	00000034 read_RI_bit
00005ddc g     O .rwdata	00000004 _global_impure_ptr
000078a0 g       *ABS*	00000000 __bss_end
00003a80 g     F .text	00000108 alt_tick
0000275c g     F .text	0000002c read_data_byte
000039e4 g     F .text	0000009c alt_alarm_stop
00002694 g     F .text	00000030 read_RE_bit
00007780 g     O .bss	00000004 alt_irq_active
000023cc g     F .text	0000003c alt_up_irda_get_available_space_in_write_FIFO
000000fc g     F .exceptions	000000d8 alt_irq_handler
000057ec g     O .rwdata	00000028 alt_dev_null
00002298 g     F .text	00000038 alt_up_character_lcd_cursor_blink_on
0000290c g     F .text	00000074 alt_up_ps2_write_data_byte
00003308 g     F .text	00000020 alt_dcache_flush_all
00005de4 g       *ABS*	00000000 __ram_rwdata_end
00005dc4 g     O .rwdata	00000008 alt_dev_list
00004450 g       *ABS*	00000000 __ram_rodata_end
00002fd4 g     F .text	00000094 alt_up_rs232_write_fd
00000000 g       *ABS*	00000000 __alt_mem_SDRAM
000078a0 g       *ABS*	00000000 end
00002c3c g     F .text	00000098 alt_up_ps2_write_fd
00002408 g     F .text	00000044 alt_up_irda_check_parity
000013cc g     F .text	000000bc altera_avalon_jtag_uart_init
00000284 g     F .text	00000044 toggleBCDHEX
000001d4 g     F .exceptions	00000074 alt_instruction_exception_entry
000042cc g       *ABS*	00000000 __CTOR_LIST__
04000000 g       *ABS*	00000000 __alt_stack_pointer
00001d54 g     F .text	00000084 alt_avalon_timer_sc_init
00001ab4 g     F .text	00000224 altera_avalon_jtag_uart_write
00001f04 g     F .text	0000007c alt_up_character_lcd_write
00004118 g     F .text	00000180 __call_exitprocs
00000248 g     F .text	0000003c _start
00007790 g     O .bss	00000004 _alt_tick_rate
00007794 g     O .bss	00000004 _alt_nticks
00000f44 g     F .text	00000324 alt_sys_init
00002148 g     F .text	0000008c alt_up_character_lcd_shift_display
000005f4 g     F .text	000002bc seven_seg_bcd
00004000 g     F .text	00000118 __register_exitproc
00002b58 g     F .text	00000058 alt_up_ps2_clear_fifo
00002e10 g     F .text	0000003c alt_up_rs232_get_available_space_in_write_FIFO
000021d4 g     F .text	0000008c alt_up_character_lcd_erase_pos
00001740 g     F .text	00000068 altera_avalon_jtag_uart_close
00004450 g       *ABS*	00000000 __ram_rwdata_start
000042cc g       *ABS*	00000000 __ram_rodata_start
00001268 g     F .text	00000060 altera_avalon_jtag_uart_read_fd
00003cc0 g     F .text	000000b4 alt_get_fd
00003eec g     F .text	0000007c memcmp
00001328 g     F .text	00000050 altera_avalon_jtag_uart_close_fd
000078a0 g       *ABS*	00000000 __alt_stack_base
00001378 g     F .text	00000054 altera_avalon_jtag_uart_ioctl_fd
000022d0 g     F .text	0000005c alt_up_irda_enable_read_interrupt
00002d70 g     F .text	00000060 alt_up_rs232_disable_read_interrupt
00003bac g     F .text	00000114 alt_find_file
000033a4 g     F .text	000000a4 alt_dev_llist_insert
00007778 g       *ABS*	00000000 __bss_start
00000358 g     F .text	00000094 main
0000778c g     O .bss	00000004 alt_envp
000012c8 g     F .text	00000060 altera_avalon_jtag_uart_write_fd
000005bc g     F .text	00000038 LCD_cursor_off
000020bc g     F .text	0000008c alt_up_character_lcd_shift_cursor
00002ae8 g     F .text	00000070 alt_up_ps2_read_data_byte
00005dd0 g     O .rwdata	00000004 alt_errno
0000244c g     F .text	00000040 alt_up_irda_write_data
00002cd4 g     F .text	00000040 alt_up_ps2_open_dev
00001ec4 g     F .text	00000040 alt_up_character_lcd_open_dev
00002850 g     F .text	0000005c alt_up_ps2_enable_read_interrupt
000042cc g       *ABS*	00000000 __CTOR_END__
00001e8c g     F .text	00000038 alt_up_character_lcd_init
000042cc g       *ABS*	00000000 __flash_rodata_start
000042cc g       *ABS*	00000000 __DTOR_LIST__
00003068 g     F .text	00000040 alt_up_rs232_open_dev
00000f0c g     F .text	00000038 alt_irq_init
00003980 g     F .text	00000064 alt_release_fd
00002728 g     F .text	00000034 read_data_valid
00002260 g     F .text	00000038 alt_up_character_lcd_cursor_off
000029e8 g     F .text	00000064 alt_up_ps2_write_data_byte_with_ack
00003ea0 g     F .text	00000014 atexit
00005de0 g     O .rwdata	00000004 _impure_ptr
00007784 g     O .bss	00000004 alt_argc
000034a8 g     F .text	00000060 _do_dtors
09000000 g       *ABS*	00000000 __alt_mem_VGA_Subsystem_Char_Buf_Subsystem_Onchip_SRAM
00000020 g       .exceptions	00000000 alt_irq_entry
00005dbc g     O .rwdata	00000008 alt_fs_list
00002d14 g     F .text	0000005c alt_up_rs232_enable_read_interrupt
00002e90 g     F .text	00000040 alt_up_rs232_write_data
00000020 g       *ABS*	00000000 __ram_exceptions_start
000003ec g     F .text	000000f8 buttonISR
000009fc g     F .text	00000078 timerISR
00005de4 g       *ABS*	00000000 _edata
000078a0 g       *ABS*	00000000 _end
00000248 g       *ABS*	00000000 __ram_exceptions_end
000017a8 g     F .text	000000f0 altera_avalon_jtag_uart_ioctl
00003eb4 g     F .text	00000038 exit
0000248c g     F .text	00000074 alt_up_irda_read_data
00002788 g     F .text	000000c8 alt_up_ps2_init
04000000 g       *ABS*	00000000 __alt_data_end
00000020 g     F .exceptions	00000000 alt_exception
00001f80 g     F .text	00000078 alt_up_character_lcd_string
00002620 g     F .text	00000040 alt_up_irda_open_dev
00004298 g     F .text	00000034 _exit
000030a8 g     F .text	00000140 alt_alarm_start
00002980 g     F .text	00000068 alt_up_ps2_wait_for_ack
000008b0 g     F .text	0000014c seven_seg_hex
00003f68 g     F .text	00000098 strlen
00003828 g     F .text	00000158 open
00003598 g     F .text	00000034 alt_icache_flush_all
00002048 g     F .text	00000074 alt_up_character_lcd_set_cursor_pos
00005db8 g     O .rwdata	00000004 alt_priority_mask
00002bb0 g     F .text	0000008c alt_up_ps2_read_fd
00002500 g     F .text	00000090 alt_up_irda_read_fd
00005dd4 g     O .rwdata	00000008 alt_alarm_list
00003448 g     F .text	00000060 _do_ctors
00002dd0 g     F .text	00000040 alt_up_rs232_get_used_space_in_read_FIFO
00003238 g     F .text	000000d0 close
0000777c g     O .bss	00000001 display_as_bcd
00000dd4 g     F .text	00000084 alt_load



Disassembly of section .entry:

00000000 <__reset>:
#if NIOS2_ICACHE_SIZE > 0 && defined(ALT_ALLOW_CODE_AT_RESET) && (!defined(ALT_SIM_OPTIMIZE) || defined(NIOS2_ECC_PRESENT))
    /* Assume the instruction cache size is always a power of two. */
#if NIOS2_ICACHE_SIZE > 0x8000
    movhi r2, %hi(NIOS2_ICACHE_SIZE)
#else
    movui r2, NIOS2_ICACHE_SIZE
   0:	00840014 	movui	r2,4096
#endif

0:
    initi r2
   4:	1001483a 	initi	r2
    addi r2, r2, -NIOS2_ICACHE_LINE_SIZE
   8:	10bff804 	addi	r2,r2,-32
    bgt r2, zero, 0b
   c:	00bffd16 	blt	zero,r2,4 <__alt_mem_VGA_Subsystem_Char_Buf_Subsystem_Onchip_SRAM+0xf7000004>
 * Jump to the _start entry point in the .text section if reset code
 * is allowed or if optimizing for RTL simulation.
 */
#if defined(ALT_ALLOW_CODE_AT_RESET) || defined(ALT_SIM_OPTIMIZE)
    /* Jump to the _start entry point in the .text section. */
    movhi r1, %hi(_start)
  10:	00400034 	movhi	at,0
    ori r1, r1, %lo(_start)
  14:	08409214 	ori	at,at,584
    jmp r1
  18:	0800683a 	jmp	at
  1c:	00000000 	call	0 <__reset>

Disassembly of section .exceptions:

00000020 <alt_exception>:

#else /* ALT_EXCEPTION_STACK disabled */
        /* 
         * Reserve space on normal stack for registers about to be pushed.
         */
        addi  sp, sp, -76
  20:	deffed04 	addi	sp,sp,-76
         * documentation for details).
         *
         * Leave a gap in the stack frame at 4(sp) for the muldiv handler to
         * store zero into.
         */
        stw   ra,  0(sp)
  24:	dfc00015 	stw	ra,0(sp)
        stw   r1,   8(sp)
  28:	d8400215 	stw	at,8(sp)
        stw   r2,  12(sp)
  2c:	d8800315 	stw	r2,12(sp)
        stw   r3,  16(sp)
  30:	d8c00415 	stw	r3,16(sp)
        stw   r4,  20(sp)
  34:	d9000515 	stw	r4,20(sp)
        stw   r5,  24(sp)
  38:	d9400615 	stw	r5,24(sp)
        stw   r6,  28(sp)
  3c:	d9800715 	stw	r6,28(sp)
        stw   r7,  32(sp)
  40:	d9c00815 	stw	r7,32(sp)
        rdctl r5, estatus   /* Read early to avoid usage stall */
  44:	000b307a 	rdctl	r5,estatus
        stw   r8,  36(sp)
  48:	da000915 	stw	r8,36(sp)
        stw   r9,  40(sp)
  4c:	da400a15 	stw	r9,40(sp)
        stw   r10, 44(sp)
  50:	da800b15 	stw	r10,44(sp)
        stw   r11, 48(sp)
  54:	dac00c15 	stw	r11,48(sp)
        stw   r12, 52(sp)
  58:	db000d15 	stw	r12,52(sp)
        stw   r13, 56(sp)
  5c:	db400e15 	stw	r13,56(sp)
        stw   r14, 60(sp)
  60:	db800f15 	stw	r14,60(sp)
        stw   r15, 64(sp)
  64:	dbc01015 	stw	r15,64(sp)
        /*
         * ea-4 contains the address of the instruction being executed
         * when the exception occured. For interrupt exceptions, we will
         * will be re-issue the isntruction. Store it in 72(sp)
         */
        stw   r5,  68(sp)  /* estatus */
  68:	d9401115 	stw	r5,68(sp)
        addi  r15, ea, -4  /* instruction that caused exception */
  6c:	ebffff04 	addi	r15,ea,-4
        stw   r15,  72(sp)
  70:	dbc01215 	stw	r15,72(sp)
#else
        /*
         * Test to see if the exception was a software exception or caused 
         * by an external interrupt, and vector accordingly.
         */
        rdctl r4, ipending
  74:	0009313a 	rdctl	r4,ipending
        andi  r2, r5, 1
  78:	2880004c 	andi	r2,r5,1
        beq   r2, zero, .Lnot_irq
  7c:	10000326 	beq	r2,zero,8c <alt_exception+0x6c>
        beq   r4, zero, .Lnot_irq
  80:	20000226 	beq	r4,zero,8c <alt_exception+0x6c>
        /*
         * Now that all necessary registers have been preserved, call 
         * alt_irq_handler() to process the interrupts.
         */

        call alt_irq_handler
  84:	00000fc0 	call	fc <alt_irq_handler>

        .section .exceptions.irqreturn, "xa"

        br    .Lexception_exit
  88:	00000706 	br	a8 <alt_exception+0x88>
         * upon completion, so we write ea (address of instruction *after*
         * the one where the exception occured) into 72(sp). The actual
         * instruction that caused the exception is written in r2, which these
         * handlers will utilize.
         */
        stw ea, 72(sp) /* EA is PC+4 so will skip over instruction causing exception */
  8c:	df401215 	stw	ea,72(sp)
.Lunknown_16bit:
        addi.n r4, r4, 2 /* Need PC+2 to skip over instruction causing exception */
        stw r4, 72(sp)

#else /* CDX is not Enabled and all instructions are 32bits */
        ldw r2, -4(ea) /* Instruction value that caused exception */
  90:	e8bfff17 	ldw	r2,-4(ea)
         * debugger is present) or go into an infinite loop since the
         * handling behavior is undefined; in that case we will not return here.
         */

        /* Load exception-causing address as first argument (r4) */
        addi   r4, ea, -4
  94:	e93fff04 	addi	r4,ea,-4

        /* Call the instruction-exception entry */
        call   alt_instruction_exception_entry
  98:	00001d40 	call	1d4 <alt_instruction_exception_entry>
         * instruction
         *
         * Return code was 0: Skip. The instruction after the exception is
         * already stored in 72(sp).
         */
        bne   r2, r0, .Lexception_exit
  9c:	1000021e 	bne	r2,zero,a8 <alt_exception+0x88>

        /*
         * Otherwise, modify 72(sp) to re-issue the instruction that caused the
         * exception.
         */
        addi  r15, ea, -4  /* instruction that caused exception */
  a0:	ebffff04 	addi	r15,ea,-4
        stw   r15,  72(sp)
  a4:	dbc01215 	stw	r15,72(sp)
        /* 
         * Restore the saved registers, so that all general purpose registers 
         * have been restored to their state at the time the interrupt occured.
         */

        ldw   r5,  68(sp)
  a8:	d9401117 	ldw	r5,68(sp)
        ldw   ea,  72(sp)  /* This becomes the PC once eret is executed */
  ac:	df401217 	ldw	ea,72(sp)
        ldw   ra,   0(sp)
  b0:	dfc00017 	ldw	ra,0(sp)

        wrctl estatus, r5
  b4:	2801707a 	wrctl	estatus,r5

        ldw   r1,   8(sp)
  b8:	d8400217 	ldw	at,8(sp)
        ldw   r2,  12(sp)
  bc:	d8800317 	ldw	r2,12(sp)
        ldw   r3,  16(sp)
  c0:	d8c00417 	ldw	r3,16(sp)
        ldw   r4,  20(sp)
  c4:	d9000517 	ldw	r4,20(sp)
        ldw   r5,  24(sp)
  c8:	d9400617 	ldw	r5,24(sp)
        ldw   r6,  28(sp)
  cc:	d9800717 	ldw	r6,28(sp)
        ldw   r7,  32(sp)
  d0:	d9c00817 	ldw	r7,32(sp)

#if defined(ALT_EXCEPTION_STACK) && defined(ALT_STACK_CHECK)
        ldw   et, %gprel(alt_exception_old_stack_limit)(gp)
#endif

        ldw   r8,  36(sp)
  d4:	da000917 	ldw	r8,36(sp)
        ldw   r9,  40(sp)
  d8:	da400a17 	ldw	r9,40(sp)
        ldw   r10, 44(sp)
  dc:	da800b17 	ldw	r10,44(sp)
        ldw   r11, 48(sp)
  e0:	dac00c17 	ldw	r11,48(sp)
        ldw   r12, 52(sp)
  e4:	db000d17 	ldw	r12,52(sp)
        ldw   r13, 56(sp)
  e8:	db400e17 	ldw	r13,56(sp)
        ldw   r14, 60(sp)
  ec:	db800f17 	ldw	r14,60(sp)
        ldw   r15, 64(sp)
  f0:	dbc01017 	ldw	r15,64(sp)
        stw   et, %gprel(alt_stack_limit_value)(gp)
        stw   zero, %gprel(alt_exception_old_stack_limit)(gp)
#endif /* ALT_STACK_CHECK */
        ldw   sp,  76(sp)
#else /* ALT_EXCEPTION_STACK disabled */
        addi  sp, sp, 76
  f4:	dec01304 	addi	sp,sp,76

        /*
         * Return to the interrupted instruction.
         */

        eret
  f8:	ef80083a 	eret

000000fc <alt_irq_handler>:
 * instruction is present if the macro ALT_CI_INTERRUPT_VECTOR defined.
 */

void alt_irq_handler (void) __attribute__ ((section (".exceptions")));
void alt_irq_handler (void)
{
  fc:	defff904 	addi	sp,sp,-28
 100:	dfc00615 	stw	ra,24(sp)
 104:	df000515 	stw	fp,20(sp)
 108:	df000504 	addi	fp,sp,20
  
  /*
   * Notify the operating system that we are at interrupt level.
   */ 
  
  ALT_OS_INT_ENTER();
 10c:	0001883a 	nop
#ifndef NIOS2_EIC_PRESENT
static ALT_INLINE alt_u32 ALT_ALWAYS_INLINE alt_irq_pending (void)
{
  alt_u32 active;

  NIOS2_READ_IPENDING (active);
 110:	0005313a 	rdctl	r2,ipending
 114:	e0bffe15 	stw	r2,-8(fp)

  return active;
 118:	e0bffe17 	ldw	r2,-8(fp)
   * Consider the case where the high priority interupt is asserted during
   * the interrupt entry sequence for a lower priority interrupt to see why
   * this is the case.
   */

  active = alt_irq_pending ();
 11c:	e0bffb15 	stw	r2,-20(fp)

  do
  {
    i = 0;
 120:	e03ffd15 	stw	zero,-12(fp)
    mask = 1;
 124:	00800044 	movi	r2,1
 128:	e0bffc15 	stw	r2,-16(fp)
     * called to clear the interrupt condition.
     */

    do
    {
      if (active & mask)
 12c:	e0fffb17 	ldw	r3,-20(fp)
 130:	e0bffc17 	ldw	r2,-16(fp)
 134:	1884703a 	and	r2,r3,r2
 138:	10001526 	beq	r2,zero,190 <alt_irq_handler+0x94>
      { 
#ifdef ALT_ENHANCED_INTERRUPT_API_PRESENT
        alt_irq[i].handler(alt_irq[i].context); 
#else
        alt_irq[i].handler(alt_irq[i].context, i); 
 13c:	00800034 	movhi	r2,0
 140:	109de804 	addi	r2,r2,30624
 144:	e0fffd17 	ldw	r3,-12(fp)
 148:	180690fa 	slli	r3,r3,3
 14c:	10c5883a 	add	r2,r2,r3
 150:	10c00017 	ldw	r3,0(r2)
 154:	00800034 	movhi	r2,0
 158:	109de804 	addi	r2,r2,30624
 15c:	e13ffd17 	ldw	r4,-12(fp)
 160:	200890fa 	slli	r4,r4,3
 164:	1105883a 	add	r2,r2,r4
 168:	10800104 	addi	r2,r2,4
 16c:	10800017 	ldw	r2,0(r2)
 170:	e17ffd17 	ldw	r5,-12(fp)
 174:	1009883a 	mov	r4,r2
 178:	183ee83a 	callr	r3
#endif
        break;
 17c:	0001883a 	nop
#ifndef NIOS2_EIC_PRESENT
static ALT_INLINE alt_u32 ALT_ALWAYS_INLINE alt_irq_pending (void)
{
  alt_u32 active;

  NIOS2_READ_IPENDING (active);
 180:	0005313a 	rdctl	r2,ipending
 184:	e0bfff15 	stw	r2,-4(fp)

  return active;
 188:	e0bfff17 	ldw	r2,-4(fp)
 18c:	00000706 	br	1ac <alt_irq_handler+0xb0>
      }
      mask <<= 1;
 190:	e0bffc17 	ldw	r2,-16(fp)
 194:	1085883a 	add	r2,r2,r2
 198:	e0bffc15 	stw	r2,-16(fp)
      i++;
 19c:	e0bffd17 	ldw	r2,-12(fp)
 1a0:	10800044 	addi	r2,r2,1
 1a4:	e0bffd15 	stw	r2,-12(fp)

    } while (1);
 1a8:	003fe006 	br	12c <__alt_mem_VGA_Subsystem_Char_Buf_Subsystem_Onchip_SRAM+0xf700012c>

    active = alt_irq_pending ();
 1ac:	e0bffb15 	stw	r2,-20(fp)
    
  } while (active);
 1b0:	e0bffb17 	ldw	r2,-20(fp)
 1b4:	103fda1e 	bne	r2,zero,120 <__alt_mem_VGA_Subsystem_Char_Buf_Subsystem_Onchip_SRAM+0xf7000120>

  /*
   * Notify the operating system that interrupt processing is complete.
   */ 

  ALT_OS_INT_EXIT();
 1b8:	0001883a 	nop
}
 1bc:	0001883a 	nop
 1c0:	e037883a 	mov	sp,fp
 1c4:	dfc00117 	ldw	ra,4(sp)
 1c8:	df000017 	ldw	fp,0(sp)
 1cc:	dec00204 	addi	sp,sp,8
 1d0:	f800283a 	ret

000001d4 <alt_instruction_exception_entry>:
 * that handler if it has been registered. Absent a handler, it will
 * break break or hang as discussed below.
 */
int 
alt_instruction_exception_entry (alt_u32 exception_pc)
{
 1d4:	defffb04 	addi	sp,sp,-20
 1d8:	dfc00415 	stw	ra,16(sp)
 1dc:	df000315 	stw	fp,12(sp)
 1e0:	df000304 	addi	fp,sp,12
 1e4:	e13fff15 	stw	r4,-4(fp)
 * NIOS2_EXCEPTION_CAUSE_NOT_PRESENT. Your handling routine should
 * check the validity of the cause argument before proceeding.
 */
#ifdef NIOS2_HAS_EXTRA_EXCEPTION_INFO
  /* Get exception cause & "badaddr" */
  NIOS2_READ_EXCEPTION(cause);
 1e8:	000531fa 	rdctl	r2,exception
 1ec:	e0bffd15 	stw	r2,-12(fp)
  cause = ( (cause & NIOS2_EXCEPTION_REG_CAUSE_MASK) >>
 1f0:	e0bffd17 	ldw	r2,-12(fp)
 1f4:	10801f0c 	andi	r2,r2,124
 1f8:	1004d0ba 	srli	r2,r2,2
 1fc:	e0bffd15 	stw	r2,-12(fp)
              NIOS2_EXCEPTION_REG_CAUSE_OFST );

  NIOS2_READ_BADADDR(badaddr);
 200:	0005333a 	rdctl	r2,badaddr
 204:	e0bffe15 	stw	r2,-8(fp)
#else
  cause = NIOS2_EXCEPTION_CAUSE_NOT_PRESENT;
  badaddr = 0;
#endif /* NIOS2_HAS_EXTRA_EXCEPTION_INFO */

  if(alt_instruction_exception_handler) {
 208:	d0a67817 	ldw	r2,-26144(gp)
 20c:	10000726 	beq	r2,zero,22c <alt_instruction_exception_entry+0x58>
     * Call handler. Its return value indicates whether the exception-causing
     * instruction should be re-issued. The code that called us,
     * alt_eceptions_entry.S, will look at this value and adjust the ea
     * register as necessary
     */
    return alt_instruction_exception_handler(cause, exception_pc, badaddr);
 210:	d0a67817 	ldw	r2,-26144(gp)
 214:	e0fffd17 	ldw	r3,-12(fp)
 218:	e1bffe17 	ldw	r6,-8(fp)
 21c:	e17fff17 	ldw	r5,-4(fp)
 220:	1809883a 	mov	r4,r3
 224:	103ee83a 	callr	r2
 228:	00000206 	br	234 <alt_instruction_exception_entry+0x60>
   *    (a peripheral which negates its interrupt output before its
   *    interrupt handler has been executed will cause spurious interrupts)
   */
  else {
#ifdef NIOS2_HAS_DEBUG_STUB
    NIOS2_BREAK();
 22c:	003da03a 	break	0
      ;
#endif /* NIOS2_HAS_DEBUG_STUB */
  }

  /* We should not get here. Remove compiler warning. */
  return NIOS2_EXCEPTION_RETURN_REISSUE_INST;
 230:	0005883a 	mov	r2,zero
}
 234:	e037883a 	mov	sp,fp
 238:	dfc00117 	ldw	ra,4(sp)
 23c:	df000017 	ldw	fp,0(sp)
 240:	dec00204 	addi	sp,sp,8
 244:	f800283a 	ret

Disassembly of section .text:

00000248 <_start>:

    /*
     * Now that the caches are initialized, set up the stack pointer and global pointer.
     * The values provided by the linker are assumed to be correctly aligned.
     */
    movhi sp, %hi(__alt_stack_pointer)
     248:	06c10034 	movhi	sp,1024
    ori sp, sp, %lo(__alt_stack_pointer)
     24c:	dec00014 	ori	sp,sp,0
    movhi gp, %hi(_gp)
     250:	06800034 	movhi	gp,0
    ori gp, gp, %lo(_gp)
     254:	d6b76e14 	ori	gp,gp,56760
 */
#ifndef ALT_SIM_OPTIMIZE
    /* Log that the BSS is about to be cleared. */
    ALT_LOG_PUTS(alt_log_msg_bss)

    movhi r2, %hi(__bss_start)
     258:	00800034 	movhi	r2,0
    ori r2, r2, %lo(__bss_start)
     25c:	109dde14 	ori	r2,r2,30584

    movhi r3, %hi(__bss_end)
     260:	00c00034 	movhi	r3,0
    ori r3, r3, %lo(__bss_end)
     264:	18de2814 	ori	r3,r3,30880

    beq r2, r3, 1f
     268:	10c00326 	beq	r2,r3,278 <_start+0x30>

0:
    stw zero, (r2)
     26c:	10000015 	stw	zero,0(r2)
    addi r2, r2, 4
     270:	10800104 	addi	r2,r2,4
    bltu r2, r3, 0b
     274:	10fffd36 	bltu	r2,r3,26c <__alt_mem_VGA_Subsystem_Char_Buf_Subsystem_Onchip_SRAM+0xf700026c>
     * section aren't defined until alt_load() has been called).
     */
    mov   et, zero
#endif

    call alt_load
     278:	0000dd40 	call	dd4 <alt_load>

    /* Log that alt_main is about to be called. */
    ALT_LOG_PUTS(alt_log_msg_alt_main)

    /* Call the C entry point. It should never return. */
    call alt_main
     27c:	0000e580 	call	e58 <alt_main>

00000280 <alt_after_alt_main>:

    /* Wait in infinite loop in case alt_main does return. */
alt_after_alt_main:
    br alt_after_alt_main
     280:	003fff06 	br	280 <__alt_mem_VGA_Subsystem_Char_Buf_Subsystem_Onchip_SRAM+0xf7000280>

00000284 <toggleBCDHEX>:
#include "io.h"
#include "system.h"

extern volatile alt_u8 display_as_bcd;

void toggleBCDHEX(){
     284:	deffff04 	addi	sp,sp,-4
     288:	df000015 	stw	fp,0(sp)
     28c:	d839883a 	mov	fp,sp
	display_as_bcd = !display_as_bcd;
     290:	00800034 	movhi	r2,0
     294:	109ddf04 	addi	r2,r2,30588
     298:	10800003 	ldbu	r2,0(r2)
     29c:	10803fcc 	andi	r2,r2,255
     2a0:	1005003a 	cmpeq	r2,r2,zero
     2a4:	1007883a 	mov	r3,r2
     2a8:	00800034 	movhi	r2,0
     2ac:	109ddf04 	addi	r2,r2,30588
     2b0:	10c00005 	stb	r3,0(r2)
}
     2b4:	0001883a 	nop
     2b8:	e037883a 	mov	sp,fp
     2bc:	df000017 	ldw	fp,0(sp)
     2c0:	dec00104 	addi	sp,sp,4
     2c4:	f800283a 	ret

000002c8 <HexDisplay>:

void HexDisplay(alt_u32 * base, alt_u16 num){
     2c8:	defffb04 	addi	sp,sp,-20
     2cc:	dfc00415 	stw	ra,16(sp)
     2d0:	df000315 	stw	fp,12(sp)
     2d4:	df000304 	addi	fp,sp,12
     2d8:	e13ffe15 	stw	r4,-8(fp)
     2dc:	2805883a 	mov	r2,r5
     2e0:	e0bfff0d 	sth	r2,-4(fp)

	alt_u8 leading_zeros = 0x01&IORD(SLIDER_SWITCHES_BASE, 0);
     2e4:	00840034 	movhi	r2,4096
     2e8:	10801004 	addi	r2,r2,64
     2ec:	10800037 	ldwio	r2,0(r2)
     2f0:	1080004c 	andi	r2,r2,1
     2f4:	e0bffd05 	stb	r2,-12(fp)
	if (display_as_bcd){
     2f8:	00800034 	movhi	r2,0
     2fc:	109ddf04 	addi	r2,r2,30588
     300:	10800003 	ldbu	r2,0(r2)
     304:	10803fcc 	andi	r2,r2,255
     308:	10000726 	beq	r2,zero,328 <HexDisplay+0x60>
		seven_seg_bcd(base, num, leading_zeros);
     30c:	e0bfff0b 	ldhu	r2,-4(fp)
     310:	e0fffd03 	ldbu	r3,-12(fp)
     314:	180d883a 	mov	r6,r3
     318:	100b883a 	mov	r5,r2
     31c:	e13ffe17 	ldw	r4,-8(fp)
     320:	00005f40 	call	5f4 <seven_seg_bcd>
	}
	else
	{
		seven_seg_hex(base, num, leading_zeros); // leading_zeros);
	}
}
     324:	00000606 	br	340 <HexDisplay+0x78>
	if (display_as_bcd){
		seven_seg_bcd(base, num, leading_zeros);
	}
	else
	{
		seven_seg_hex(base, num, leading_zeros); // leading_zeros);
     328:	e0bfff0b 	ldhu	r2,-4(fp)
     32c:	e0fffd03 	ldbu	r3,-12(fp)
     330:	180d883a 	mov	r6,r3
     334:	100b883a 	mov	r5,r2
     338:	e13ffe17 	ldw	r4,-8(fp)
     33c:	00008b00 	call	8b0 <seven_seg_hex>
	}
}
     340:	0001883a 	nop
     344:	e037883a 	mov	sp,fp
     348:	dfc00117 	ldw	ra,4(sp)
     34c:	df000017 	ldw	fp,0(sp)
     350:	dec00204 	addi	sp,sp,8
     354:	f800283a 	ret

00000358 <main>:
 ******************************************************************************/

volatile alt_u8 display_as_bcd;

int main(void)
{ 
     358:	defffd04 	addi	sp,sp,-12
     35c:	dfc00215 	stw	ra,8(sp)
     360:	df000115 	stw	fp,4(sp)
     364:	df000104 	addi	fp,sp,4
    alt_u32* pCount;
    static alt_u32 count = 0;
    pCount = &count;
     368:	d0a67004 	addi	r2,gp,-26176
     36c:	e0bfff15 	stw	r2,-4(fp)
    /* Initialize Variables */
    display_as_bcd = 1;
     370:	00800034 	movhi	r2,0
     374:	109ddf04 	addi	r2,r2,30588
     378:	00c00044 	movi	r3,1
     37c:	10c00005 	stb	r3,0(r2)
    /* Register ISRs */
    alt_irq_register(INTERVAL_TIMER_IRQ, (void*)pCount, timerISR);
     380:	01800034 	movhi	r6,0
     384:	31827f04 	addi	r6,r6,2556
     388:	e17fff17 	ldw	r5,-4(fp)
     38c:	0009883a 	mov	r4,zero
     390:	0000bbc0 	call	bbc <alt_irq_register>
    alt_irq_register(PUSHBUTTONS_IRQ, (void*)pCount, buttonISR);
     394:	01800034 	movhi	r6,0
     398:	3180fb04 	addi	r6,r6,1004
     39c:	e17fff17 	ldw	r5,-4(fp)
     3a0:	01000044 	movi	r4,1
     3a4:	0000bbc0 	call	bbc <alt_irq_register>

    /* Initialize Timer */
    IOWR(INTERVAL_TIMER_BASE, 2, 0x0000FFFF&INTERVAL_TIMER_FREQ);
     3a8:	00fc2014 	movui	r3,61568
     3ac:	00840034 	movhi	r2,4096
     3b0:	10880204 	addi	r2,r2,8200
     3b4:	10c00035 	stwio	r3,0(r2)
    IOWR(INTERVAL_TIMER_BASE, 3, 0xFFFF&(INTERVAL_TIMER_FREQ >> 16));
     3b8:	00c0be84 	movi	r3,762
     3bc:	00840034 	movhi	r2,4096
     3c0:	10880304 	addi	r2,r2,8204
     3c4:	10c00035 	stwio	r3,0(r2)
    IOWR(INTERVAL_TIMER_BASE, 1, 0x7); // STOP=0, START=1, CONT=1, ITO=1 => 0111b = 0x7
     3c8:	00c001c4 	movi	r3,7
     3cc:	00840034 	movhi	r2,4096
     3d0:	10880104 	addi	r2,r2,8196
     3d4:	10c00035 	stwio	r3,0(r2)

    /* Initialize Buttons */
    IOWR(PUSHBUTTONS_BASE, 2, 0xE); // Set interrupt mask
     3d8:	00c00384 	movi	r3,14
     3dc:	00840034 	movhi	r2,4096
     3e0:	10801604 	addi	r2,r2,88
     3e4:	10c00035 	stwio	r3,0(r2)

    /* Loop while processing interrupts */
    while( 1 ) 
    {

    }
     3e8:	003fff06 	br	3e8 <__alt_mem_VGA_Subsystem_Char_Buf_Subsystem_Onchip_SRAM+0xf70003e8>

000003ec <buttonISR>:
#ifdef ALT_ENHANCED_INTERRUPT_API_PRESENT
void buttonISR(void* context)
#else
void buttonISR(void* context, alt_u32 id)
#endif
{
     3ec:	defff904 	addi	sp,sp,-28
     3f0:	dfc00615 	stw	ra,24(sp)
     3f4:	df000515 	stw	fp,20(sp)
     3f8:	df000504 	addi	fp,sp,20
     3fc:	e13ffe15 	stw	r4,-8(fp)
     400:	e17fff15 	stw	r5,-4(fp)
    /* Cast context It is important that this be declared 
     * volatile to avoid unwanted compiler optimization.*/
	alt_u32 *pCount = (alt_u32*)context;
     404:	e0bffe17 	ldw	r2,-8(fp)
     408:	e0bffc15 	stw	r2,-16(fp)
	//volatile alt_u32 *keyPrs = (alt_u32*)context;
	alt_u8 timersetting;
	/* Store the value in the PUSHBUTTONS's edge capture register in *context. */
	alt_u8 buttonPress = IORD(PUSHBUTTONS_BASE, 3);
     40c:	00840034 	movhi	r2,4096
     410:	10801704 	addi	r2,r2,92
     414:	10800037 	ldwio	r2,0(r2)
     418:	e0bffd05 	stb	r2,-12(fp)
    /* Reset the PUSHBUTTONS's edge capture register. */
	IOWR_ALTERA_AVALON_PIO_EDGE_CAP(PUSHBUTTONS_BASE, 0);
     41c:	0007883a 	mov	r3,zero
     420:	00840034 	movhi	r2,4096
     424:	10801704 	addi	r2,r2,92
     428:	10c00035 	stwio	r3,0(r2)

    /* Act upon the interrupt */
	//0x2 is button 1 0x4 is button 2
	switch (buttonPress){
     42c:	e0bffd03 	ldbu	r2,-12(fp)
     430:	10c00120 	cmpeqi	r3,r2,4
     434:	1800161e 	bne	r3,zero,490 <buttonISR+0xa4>
     438:	10c00220 	cmpeqi	r3,r2,8
     43c:	18001e1e 	bne	r3,zero,4b8 <buttonISR+0xcc>
     440:	108000a0 	cmpeqi	r2,r2,2
     444:	1000011e 	bne	r2,zero,44c <buttonISR+0x60>
		break;
	case 8:
		toggleBCDHEX();
		break;
	default:
		break;
     448:	00001d06 	br	4c0 <buttonISR+0xd4>

    /* Act upon the interrupt */
	//0x2 is button 1 0x4 is button 2
	switch (buttonPress){
	case 2:
		timersetting = IORD(INTERVAL_TIMER_BASE, 1);
     44c:	00840034 	movhi	r2,4096
     450:	10880104 	addi	r2,r2,8196
     454:	10800037 	ldwio	r2,0(r2)
     458:	e0bffb05 	stb	r2,-20(fp)
		if (timersetting&0x8)
     45c:	e0bffb03 	ldbu	r2,-20(fp)
     460:	1080020c 	andi	r2,r2,8
     464:	10000326 	beq	r2,zero,474 <buttonISR+0x88>
		{
		timersetting = 0x7;
     468:	008001c4 	movi	r2,7
     46c:	e0bffb05 	stb	r2,-20(fp)
     470:	00000206 	br	47c <buttonISR+0x90>
		}
		else
		{
		timersetting = 0xB;
     474:	008002c4 	movi	r2,11
     478:	e0bffb05 	stb	r2,-20(fp)
		}
		IOWR(INTERVAL_TIMER_BASE, 1 ,timersetting);
     47c:	e0fffb03 	ldbu	r3,-20(fp)
     480:	00840034 	movhi	r2,4096
     484:	10880104 	addi	r2,r2,8196
     488:	10c00035 	stwio	r3,0(r2)
		break;
     48c:	00000c06 	br	4c0 <buttonISR+0xd4>
	case 4:
		*pCount = 0;
     490:	e0bffc17 	ldw	r2,-16(fp)
     494:	10000015 	stw	zero,0(r2)
		HexDisplay((alt_u32*)HEX3_HEX0_BASE, *pCount);
     498:	e0bffc17 	ldw	r2,-16(fp)
     49c:	10800017 	ldw	r2,0(r2)
     4a0:	10bfffcc 	andi	r2,r2,65535
     4a4:	100b883a 	mov	r5,r2
     4a8:	01040034 	movhi	r4,4096
     4ac:	21000804 	addi	r4,r4,32
     4b0:	00002c80 	call	2c8 <HexDisplay>
		break;
     4b4:	00000206 	br	4c0 <buttonISR+0xd4>
	case 8:
		toggleBCDHEX();
     4b8:	00002840 	call	284 <toggleBCDHEX>
		break;
     4bc:	0001883a 	nop
    /*
     * Read the PIO to delay ISR exit. This is done to prevent a spurious
     * interrupt in systems with high processor -> pio latency and fast
     * interrupts.
     */
    IORD_ALTERA_AVALON_PIO_EDGE_CAP(PUSHBUTTONS_BASE);
     4c0:	00840034 	movhi	r2,4096
     4c4:	10801704 	addi	r2,r2,92
     4c8:	10800037 	ldwio	r2,0(r2)
}
     4cc:	0001883a 	nop
     4d0:	e037883a 	mov	sp,fp
     4d4:	dfc00117 	ldw	ra,4(sp)
     4d8:	df000017 	ldw	fp,0(sp)
     4dc:	dec00204 	addi	sp,sp,8
     4e0:	f800283a 	ret

000004e4 <LCD_cursor>:
#include "lcd.h"
/****************************************************************************************
 * Subroutine to move the LCD cursor
****************************************************************************************/
void LCD_cursor(int x, int y)
{
     4e4:	defffb04 	addi	sp,sp,-20
     4e8:	df000415 	stw	fp,16(sp)
     4ec:	df000404 	addi	fp,sp,16
     4f0:	e13ffe15 	stw	r4,-8(fp)
     4f4:	e17fff15 	stw	r5,-4(fp)
  	volatile char * LCD_display_ptr = (char *) CHAR_LCD_16X2_BASE;	// 16x2 character display
     4f8:	00840034 	movhi	r2,4096
     4fc:	108c1404 	addi	r2,r2,12368
     500:	e0bffd15 	stw	r2,-12(fp)
	char instruction;

	instruction = x;
     504:	e0bffe17 	ldw	r2,-8(fp)
     508:	e0bffc05 	stb	r2,-16(fp)
	if (y != 0) instruction |= 0x40;				// set bit 6 for bottom row
     50c:	e0bfff17 	ldw	r2,-4(fp)
     510:	10000326 	beq	r2,zero,520 <LCD_cursor+0x3c>
     514:	e0bffc03 	ldbu	r2,-16(fp)
     518:	10801014 	ori	r2,r2,64
     51c:	e0bffc05 	stb	r2,-16(fp)
	instruction |= 0x80;								// need to set bit 7 to set the cursor location
     520:	e0fffc03 	ldbu	r3,-16(fp)
     524:	00bfe004 	movi	r2,-128
     528:	1884b03a 	or	r2,r3,r2
     52c:	e0bffc05 	stb	r2,-16(fp)
	*(LCD_display_ptr) = instruction;			// write to the LCD instruction register
     530:	e0bffd17 	ldw	r2,-12(fp)
     534:	e0fffc03 	ldbu	r3,-16(fp)
     538:	10c00005 	stb	r3,0(r2)
}
     53c:	0001883a 	nop
     540:	e037883a 	mov	sp,fp
     544:	df000017 	ldw	fp,0(sp)
     548:	dec00104 	addi	sp,sp,4
     54c:	f800283a 	ret

00000550 <LCD_text>:

/****************************************************************************************
 * Subroutine to send a string of text to the LCD
****************************************************************************************/
void LCD_text(char * text_ptr)
{
     550:	defffd04 	addi	sp,sp,-12
     554:	df000215 	stw	fp,8(sp)
     558:	df000204 	addi	fp,sp,8
     55c:	e13fff15 	stw	r4,-4(fp)
  	volatile char * LCD_display_ptr = (char *) CHAR_LCD_16X2_BASE;	// 16x2 character display
     560:	00840034 	movhi	r2,4096
     564:	108c1404 	addi	r2,r2,12368
     568:	e0bffe15 	stw	r2,-8(fp)

	while ( *(text_ptr) )
     56c:	00000806 	br	590 <LCD_text+0x40>
	{
		*(LCD_display_ptr + 1) = *(text_ptr);	// write to the LCD data register
     570:	e0bffe17 	ldw	r2,-8(fp)
     574:	10800044 	addi	r2,r2,1
     578:	e0ffff17 	ldw	r3,-4(fp)
     57c:	18c00003 	ldbu	r3,0(r3)
     580:	10c00005 	stb	r3,0(r2)
		++text_ptr;
     584:	e0bfff17 	ldw	r2,-4(fp)
     588:	10800044 	addi	r2,r2,1
     58c:	e0bfff15 	stw	r2,-4(fp)
****************************************************************************************/
void LCD_text(char * text_ptr)
{
  	volatile char * LCD_display_ptr = (char *) CHAR_LCD_16X2_BASE;	// 16x2 character display

	while ( *(text_ptr) )
     590:	e0bfff17 	ldw	r2,-4(fp)
     594:	10800003 	ldbu	r2,0(r2)
     598:	10803fcc 	andi	r2,r2,255
     59c:	1080201c 	xori	r2,r2,128
     5a0:	10bfe004 	addi	r2,r2,-128
     5a4:	103ff21e 	bne	r2,zero,570 <__alt_mem_VGA_Subsystem_Char_Buf_Subsystem_Onchip_SRAM+0xf7000570>
	{
		*(LCD_display_ptr + 1) = *(text_ptr);	// write to the LCD data register
		++text_ptr;
	}
}
     5a8:	0001883a 	nop
     5ac:	e037883a 	mov	sp,fp
     5b0:	df000017 	ldw	fp,0(sp)
     5b4:	dec00104 	addi	sp,sp,4
     5b8:	f800283a 	ret

000005bc <LCD_cursor_off>:

/****************************************************************************************
 * Subroutine to turn off the LCD cursor
****************************************************************************************/
void LCD_cursor_off(void)
{
     5bc:	defffe04 	addi	sp,sp,-8
     5c0:	df000115 	stw	fp,4(sp)
     5c4:	df000104 	addi	fp,sp,4
  	volatile char * LCD_display_ptr = (char *) CHAR_LCD_16X2_BASE;	// 16x2 character display
     5c8:	00840034 	movhi	r2,4096
     5cc:	108c1404 	addi	r2,r2,12368
     5d0:	e0bfff15 	stw	r2,-4(fp)
	*(LCD_display_ptr) = 0x0C;											// turn off the LCD cursor
     5d4:	e0bfff17 	ldw	r2,-4(fp)
     5d8:	00c00304 	movi	r3,12
     5dc:	10c00005 	stb	r3,0(r2)
}
     5e0:	0001883a 	nop
     5e4:	e037883a 	mov	sp,fp
     5e8:	df000017 	ldw	fp,0(sp)
     5ec:	dec00104 	addi	sp,sp,4
     5f0:	f800283a 	ret

000005f4 <seven_seg_bcd>:
 */
//#include "system.h"
//#include "io.h"
#include "alt_types.h"

void seven_seg_bcd(alt_u32* base, alt_u16 num, alt_u8 leading_zeros) {
     5f4:	defff304 	addi	sp,sp,-52
     5f8:	df000c15 	stw	fp,48(sp)
     5fc:	df000c04 	addi	fp,sp,48
     600:	e13ffd15 	stw	r4,-12(fp)
     604:	2807883a 	mov	r3,r5
     608:	3005883a 	mov	r2,r6
     60c:	e0fffe0d 	sth	r3,-8(fp)
     610:	e0bfff05 	stb	r2,-4(fp)
	alt_u8 bcd[4];// = {0, 0, 0, 0};
	int i, j;

	alt_u8 BCD_CODES[10] = {0x3F, 0x06, 0x5B, 0x4F, 0x66, 0x6D, 0x7D, 0x07, 0x7F, 0x67};
     614:	00800fc4 	movi	r2,63
     618:	e0bffa05 	stb	r2,-24(fp)
     61c:	00800184 	movi	r2,6
     620:	e0bffa45 	stb	r2,-23(fp)
     624:	008016c4 	movi	r2,91
     628:	e0bffa85 	stb	r2,-22(fp)
     62c:	008013c4 	movi	r2,79
     630:	e0bffac5 	stb	r2,-21(fp)
     634:	00801984 	movi	r2,102
     638:	e0bffb05 	stb	r2,-20(fp)
     63c:	00801b44 	movi	r2,109
     640:	e0bffb45 	stb	r2,-19(fp)
     644:	00801f44 	movi	r2,125
     648:	e0bffb85 	stb	r2,-18(fp)
     64c:	008001c4 	movi	r2,7
     650:	e0bffbc5 	stb	r2,-17(fp)
     654:	00801fc4 	movi	r2,127
     658:	e0bffc05 	stb	r2,-16(fp)
     65c:	008019c4 	movi	r2,103
     660:	e0bffc45 	stb	r2,-15(fp)

	bcd[3] = 0;
     664:	e03ff9c5 	stb	zero,-25(fp)
	bcd[2] = 0;
     668:	e03ff985 	stb	zero,-26(fp)
	bcd[1] = 0;
     66c:	e03ff945 	stb	zero,-27(fp)
	bcd[0] = 0;
     670:	e03ff905 	stb	zero,-28(fp)

	for (i=0; i<8; i++) {
     674:	e03ff415 	stw	zero,-48(fp)
     678:	00005906 	br	7e0 <seven_seg_bcd+0x1ec>
		// check all columns for >= 5
		bcd[3] += (bcd[3] >= 5)?3:0;
     67c:	e0fff9c3 	ldbu	r3,-25(fp)
     680:	e0bff9c3 	ldbu	r2,-25(fp)
     684:	10803fcc 	andi	r2,r2,255
     688:	10800170 	cmpltui	r2,r2,5
     68c:	1000021e 	bne	r2,zero,698 <seven_seg_bcd+0xa4>
     690:	008000c4 	movi	r2,3
     694:	00000106 	br	69c <seven_seg_bcd+0xa8>
     698:	0005883a 	mov	r2,zero
     69c:	1885883a 	add	r2,r3,r2
     6a0:	e0bff9c5 	stb	r2,-25(fp)
		bcd[2] += (bcd[2] >= 5)?3:0;
     6a4:	e0fff983 	ldbu	r3,-26(fp)
     6a8:	e0bff983 	ldbu	r2,-26(fp)
     6ac:	10803fcc 	andi	r2,r2,255
     6b0:	10800170 	cmpltui	r2,r2,5
     6b4:	1000021e 	bne	r2,zero,6c0 <seven_seg_bcd+0xcc>
     6b8:	008000c4 	movi	r2,3
     6bc:	00000106 	br	6c4 <seven_seg_bcd+0xd0>
     6c0:	0005883a 	mov	r2,zero
     6c4:	1885883a 	add	r2,r3,r2
     6c8:	e0bff985 	stb	r2,-26(fp)
		bcd[1] += (bcd[1] >= 5)?3:0;
     6cc:	e0fff943 	ldbu	r3,-27(fp)
     6d0:	e0bff943 	ldbu	r2,-27(fp)
     6d4:	10803fcc 	andi	r2,r2,255
     6d8:	10800170 	cmpltui	r2,r2,5
     6dc:	1000021e 	bne	r2,zero,6e8 <seven_seg_bcd+0xf4>
     6e0:	008000c4 	movi	r2,3
     6e4:	00000106 	br	6ec <seven_seg_bcd+0xf8>
     6e8:	0005883a 	mov	r2,zero
     6ec:	1885883a 	add	r2,r3,r2
     6f0:	e0bff945 	stb	r2,-27(fp)
		bcd[0] += (bcd[0] >= 5)?3:0;
     6f4:	e0fff903 	ldbu	r3,-28(fp)
     6f8:	e0bff903 	ldbu	r2,-28(fp)
     6fc:	10803fcc 	andi	r2,r2,255
     700:	10800170 	cmpltui	r2,r2,5
     704:	1000021e 	bne	r2,zero,710 <seven_seg_bcd+0x11c>
     708:	008000c4 	movi	r2,3
     70c:	00000106 	br	714 <seven_seg_bcd+0x120>
     710:	0005883a 	mov	r2,zero
     714:	1885883a 	add	r2,r3,r2
     718:	e0bff905 	stb	r2,-28(fp)
		bcd[3] = ((bcd[3] << 1) & 0xE) + ((bcd[2] & 0x8) >> 3);
     71c:	e0bff9c3 	ldbu	r2,-25(fp)
     720:	10803fcc 	andi	r2,r2,255
     724:	1085883a 	add	r2,r2,r2
     728:	1080038c 	andi	r2,r2,14
     72c:	1007883a 	mov	r3,r2
     730:	e0bff983 	ldbu	r2,-26(fp)
     734:	10803fcc 	andi	r2,r2,255
     738:	1080020c 	andi	r2,r2,8
     73c:	1005d0fa 	srai	r2,r2,3
     740:	1885883a 	add	r2,r3,r2
     744:	e0bff9c5 	stb	r2,-25(fp)
		bcd[2] = ((bcd[2] << 1) & 0xE) + ((bcd[1] & 0x8) >> 3);
     748:	e0bff983 	ldbu	r2,-26(fp)
     74c:	10803fcc 	andi	r2,r2,255
     750:	1085883a 	add	r2,r2,r2
     754:	1080038c 	andi	r2,r2,14
     758:	1007883a 	mov	r3,r2
     75c:	e0bff943 	ldbu	r2,-27(fp)
     760:	10803fcc 	andi	r2,r2,255
     764:	1080020c 	andi	r2,r2,8
     768:	1005d0fa 	srai	r2,r2,3
     76c:	1885883a 	add	r2,r3,r2
     770:	e0bff985 	stb	r2,-26(fp)
		bcd[1] = ((bcd[1] << 1) & 0xE) + ((bcd[0] & 0x8) >> 3);
     774:	e0bff943 	ldbu	r2,-27(fp)
     778:	10803fcc 	andi	r2,r2,255
     77c:	1085883a 	add	r2,r2,r2
     780:	1080038c 	andi	r2,r2,14
     784:	1007883a 	mov	r3,r2
     788:	e0bff903 	ldbu	r2,-28(fp)
     78c:	10803fcc 	andi	r2,r2,255
     790:	1080020c 	andi	r2,r2,8
     794:	1005d0fa 	srai	r2,r2,3
     798:	1885883a 	add	r2,r3,r2
     79c:	e0bff945 	stb	r2,-27(fp)
		bcd[0] = ((bcd[0] << 1) & 0xE) + ((num & 0x80) >> 7);
     7a0:	e0bff903 	ldbu	r2,-28(fp)
     7a4:	10803fcc 	andi	r2,r2,255
     7a8:	1085883a 	add	r2,r2,r2
     7ac:	1080038c 	andi	r2,r2,14
     7b0:	1007883a 	mov	r3,r2
     7b4:	e0bffe0b 	ldhu	r2,-8(fp)
     7b8:	1080200c 	andi	r2,r2,128
     7bc:	1005d1fa 	srai	r2,r2,7
     7c0:	1885883a 	add	r2,r3,r2
     7c4:	e0bff905 	stb	r2,-28(fp)
		num <<= 1;
     7c8:	e0bffe0b 	ldhu	r2,-8(fp)
     7cc:	1085883a 	add	r2,r2,r2
     7d0:	e0bffe0d 	sth	r2,-8(fp)
	bcd[3] = 0;
	bcd[2] = 0;
	bcd[1] = 0;
	bcd[0] = 0;

	for (i=0; i<8; i++) {
     7d4:	e0bff417 	ldw	r2,-48(fp)
     7d8:	10800044 	addi	r2,r2,1
     7dc:	e0bff415 	stw	r2,-48(fp)
     7e0:	e0bff417 	ldw	r2,-48(fp)
     7e4:	10800210 	cmplti	r2,r2,8
     7e8:	103fa41e 	bne	r2,zero,67c <__alt_mem_VGA_Subsystem_Char_Buf_Subsystem_Onchip_SRAM+0xf700067c>
		bcd[2] = ((bcd[2] << 1) & 0xE) + ((bcd[1] & 0x8) >> 3);
		bcd[1] = ((bcd[1] << 1) & 0xE) + ((bcd[0] & 0x8) >> 3);
		bcd[0] = ((bcd[0] << 1) & 0xE) + ((num & 0x80) >> 7);
		num <<= 1;
	}
	alt_u8 trailing_zeros = 0;
     7ec:	e03ff605 	stb	zero,-40(fp)
	int bcd_total = 0;
     7f0:	e03ff715 	stw	zero,-36(fp)
	int k = 24;
     7f4:	00800604 	movi	r2,24
     7f8:	e0bff815 	stw	r2,-32(fp)
	for (j=3; j>=0; j--) {
     7fc:	008000c4 	movi	r2,3
     800:	e0bff515 	stw	r2,-44(fp)
     804:	00002006 	br	888 <seven_seg_bcd+0x294>
		if (leading_zeros || bcd[j] > 0 || trailing_zeros)
     808:	e0bfff03 	ldbu	r2,-4(fp)
     80c:	1000081e 	bne	r2,zero,830 <seven_seg_bcd+0x23c>
     810:	e0fff904 	addi	r3,fp,-28
     814:	e0bff517 	ldw	r2,-44(fp)
     818:	1885883a 	add	r2,r3,r2
     81c:	10800003 	ldbu	r2,0(r2)
     820:	10803fcc 	andi	r2,r2,255
     824:	1000021e 	bne	r2,zero,830 <seven_seg_bcd+0x23c>
     828:	e0bff603 	ldbu	r2,-40(fp)
     82c:	10001026 	beq	r2,zero,870 <seven_seg_bcd+0x27c>
		{
			bcd_total += BCD_CODES[bcd[j]] << k;
     830:	e0fff904 	addi	r3,fp,-28
     834:	e0bff517 	ldw	r2,-44(fp)
     838:	1885883a 	add	r2,r3,r2
     83c:	10800003 	ldbu	r2,0(r2)
     840:	10803fcc 	andi	r2,r2,255
     844:	e0fffa04 	addi	r3,fp,-24
     848:	1885883a 	add	r2,r3,r2
     84c:	10800003 	ldbu	r2,0(r2)
     850:	10c03fcc 	andi	r3,r2,255
     854:	e0bff817 	ldw	r2,-32(fp)
     858:	1884983a 	sll	r2,r3,r2
     85c:	e0fff717 	ldw	r3,-36(fp)
     860:	1885883a 	add	r2,r3,r2
     864:	e0bff715 	stw	r2,-36(fp)
			trailing_zeros = 1;
     868:	00800044 	movi	r2,1
     86c:	e0bff605 	stb	r2,-40(fp)
		}
		k -= 8;
     870:	e0bff817 	ldw	r2,-32(fp)
     874:	10bffe04 	addi	r2,r2,-8
     878:	e0bff815 	stw	r2,-32(fp)
		num <<= 1;
	}
	alt_u8 trailing_zeros = 0;
	int bcd_total = 0;
	int k = 24;
	for (j=3; j>=0; j--) {
     87c:	e0bff517 	ldw	r2,-44(fp)
     880:	10bfffc4 	addi	r2,r2,-1
     884:	e0bff515 	stw	r2,-44(fp)
     888:	e0bff517 	ldw	r2,-44(fp)
     88c:	103fde0e 	bge	r2,zero,808 <__alt_mem_VGA_Subsystem_Char_Buf_Subsystem_Onchip_SRAM+0xf7000808>
			trailing_zeros = 1;
		}
		k -= 8;
	}
	// Output the value by dereferencing the base address pointer
	*(base) = bcd_total;
     890:	e0fff717 	ldw	r3,-36(fp)
     894:	e0bffd17 	ldw	r2,-12(fp)
     898:	10c00015 	stw	r3,0(r2)
}
     89c:	0001883a 	nop
     8a0:	e037883a 	mov	sp,fp
     8a4:	df000017 	ldw	fp,0(sp)
     8a8:	dec00104 	addi	sp,sp,4
     8ac:	f800283a 	ret

000008b0 <seven_seg_hex>:
 * Parameters:
 *     base          - base address of the display
 *     num           - number to display
 *     leading_zeros - if non-zero display leading zeros
 */
void seven_seg_hex(alt_u32 * base, alt_u16 num, alt_u8 leading_zeros) {
     8b0:	defff204 	addi	sp,sp,-56
     8b4:	dfc00d15 	stw	ra,52(sp)
     8b8:	df000c15 	stw	fp,48(sp)
     8bc:	df000c04 	addi	fp,sp,48
     8c0:	e13ffd15 	stw	r4,-12(fp)
     8c4:	2807883a 	mov	r3,r5
     8c8:	3005883a 	mov	r2,r6
     8cc:	e0fffe0d 	sth	r3,-8(fp)
     8d0:	e0bfff05 	stb	r2,-4(fp)
	// an array that holds the values for each nibble
	alt_u8 hex[4];
	// encodings for each digit for the 7 LEDs making up the display
	alt_u8 HEX_CODES[16] = {0x3F, 0x06, 0x5B, 0x4F, 0x66, 0x6D, 0x7D, 0x07, 0x7F, 0x67, 0x77, 0x7C, 0x39, 0x5E, 0x79, 0x71};
     8d4:	00800034 	movhi	r2,0
     8d8:	1090b304 	addi	r2,r2,17100
     8dc:	e0fff904 	addi	r3,fp,-28
     8e0:	1009883a 	mov	r4,r2
     8e4:	00800404 	movi	r2,16
     8e8:	100d883a 	mov	r6,r2
     8ec:	200b883a 	mov	r5,r4
     8f0:	1809883a 	mov	r4,r3
     8f4:	0000a740 	call	a74 <memcpy>

	hex[0] = num & 0xF;          // least significant digit
     8f8:	e0bffe0b 	ldhu	r2,-8(fp)
     8fc:	108003cc 	andi	r2,r2,15
     900:	e0bff805 	stb	r2,-32(fp)
	hex[1] = (num >> 4) & 0xF;
     904:	e0bffe0b 	ldhu	r2,-8(fp)
     908:	1004d13a 	srli	r2,r2,4
     90c:	108003cc 	andi	r2,r2,15
     910:	e0bff845 	stb	r2,-31(fp)
	hex[2] = (num >> 8) & 0xF;
     914:	e0bffe0b 	ldhu	r2,-8(fp)
     918:	1004d23a 	srli	r2,r2,8
     91c:	108003cc 	andi	r2,r2,15
     920:	e0bff885 	stb	r2,-30(fp)
	hex[3] = (num >> 12) & 0xF;  // most significant digit
     924:	e0bffe0b 	ldhu	r2,-8(fp)
     928:	1004d33a 	srli	r2,r2,12
     92c:	108003cc 	andi	r2,r2,15
     930:	e0bff8c5 	stb	r2,-29(fp)

	// encode the digits
	// blank leading zeros if asked, but never other zeros
	alt_u8 trailing_zeros = 0;
     934:	e03ff405 	stb	zero,-48(fp)
	int i;
	int k = 24;
     938:	00800604 	movi	r2,24
     93c:	e0bff615 	stw	r2,-40(fp)
	int hex4 = 0; // The encoded value to write to the base register
     940:	e03ff715 	stw	zero,-36(fp)
	for (i=3; i>=0; i--) {
     944:	008000c4 	movi	r2,3
     948:	e0bff515 	stw	r2,-44(fp)
     94c:	00002006 	br	9d0 <seven_seg_hex+0x120>
		if (leading_zeros || hex[i] > 0 || trailing_zeros) {
     950:	e0bfff03 	ldbu	r2,-4(fp)
     954:	1000081e 	bne	r2,zero,978 <seven_seg_hex+0xc8>
     958:	e0fff804 	addi	r3,fp,-32
     95c:	e0bff517 	ldw	r2,-44(fp)
     960:	1885883a 	add	r2,r3,r2
     964:	10800003 	ldbu	r2,0(r2)
     968:	10803fcc 	andi	r2,r2,255
     96c:	1000021e 	bne	r2,zero,978 <seven_seg_hex+0xc8>
     970:	e0bff403 	ldbu	r2,-48(fp)
     974:	10001026 	beq	r2,zero,9b8 <seven_seg_hex+0x108>
			hex4 += HEX_CODES[hex[i]] << k;
     978:	e0fff804 	addi	r3,fp,-32
     97c:	e0bff517 	ldw	r2,-44(fp)
     980:	1885883a 	add	r2,r3,r2
     984:	10800003 	ldbu	r2,0(r2)
     988:	10803fcc 	andi	r2,r2,255
     98c:	e0fff904 	addi	r3,fp,-28
     990:	1885883a 	add	r2,r3,r2
     994:	10800003 	ldbu	r2,0(r2)
     998:	10c03fcc 	andi	r3,r2,255
     99c:	e0bff617 	ldw	r2,-40(fp)
     9a0:	1884983a 	sll	r2,r3,r2
     9a4:	e0fff717 	ldw	r3,-36(fp)
     9a8:	1885883a 	add	r2,r3,r2
     9ac:	e0bff715 	stw	r2,-36(fp)
			trailing_zeros = 1;
     9b0:	00800044 	movi	r2,1
     9b4:	e0bff405 	stb	r2,-48(fp)
		}
		k -= 8;
     9b8:	e0bff617 	ldw	r2,-40(fp)
     9bc:	10bffe04 	addi	r2,r2,-8
     9c0:	e0bff615 	stw	r2,-40(fp)
	// blank leading zeros if asked, but never other zeros
	alt_u8 trailing_zeros = 0;
	int i;
	int k = 24;
	int hex4 = 0; // The encoded value to write to the base register
	for (i=3; i>=0; i--) {
     9c4:	e0bff517 	ldw	r2,-44(fp)
     9c8:	10bfffc4 	addi	r2,r2,-1
     9cc:	e0bff515 	stw	r2,-44(fp)
     9d0:	e0bff517 	ldw	r2,-44(fp)
     9d4:	103fde0e 	bge	r2,zero,950 <__alt_mem_VGA_Subsystem_Char_Buf_Subsystem_Onchip_SRAM+0xf7000950>
			hex4 += HEX_CODES[hex[i]] << k;
			trailing_zeros = 1;
		}
		k -= 8;
	}
	IOWR(base, 0, hex4);
     9d8:	e0bffd17 	ldw	r2,-12(fp)
     9dc:	e0fff717 	ldw	r3,-36(fp)
     9e0:	10c00035 	stwio	r3,0(r2)
}
     9e4:	0001883a 	nop
     9e8:	e037883a 	mov	sp,fp
     9ec:	dfc00117 	ldw	ra,4(sp)
     9f0:	df000017 	ldw	fp,0(sp)
     9f4:	dec00204 	addi	sp,sp,8
     9f8:	f800283a 	ret

000009fc <timerISR>:
#ifdef ALT_ENHANCED_INTERRUPT_API_PRESENT
void timerISR(void* context)
#else
void timerISR(void * context, alt_u32 id)
#endif
{
     9fc:	defffb04 	addi	sp,sp,-20
     a00:	dfc00415 	stw	ra,16(sp)
     a04:	df000315 	stw	fp,12(sp)
     a08:	df000304 	addi	fp,sp,12
     a0c:	e13ffe15 	stw	r4,-8(fp)
     a10:	e17fff15 	stw	r5,-4(fp)
	/* Cast context. It is important that this be declared
	 * volatile to avoid unwanted compiler optimization.
	 */
	alt_u32* pCount = (alt_u32*)context;
     a14:	e0bffe17 	ldw	r2,-8(fp)
     a18:	e0bffd15 	stw	r2,-12(fp)
	/* clear the interrupt */
    IOWR(INTERVAL_TIMER_BASE, 0, 1);
     a1c:	00c00044 	movi	r3,1
     a20:	00840034 	movhi	r2,4096
     a24:	10880004 	addi	r2,r2,8192
     a28:	10c00035 	stwio	r3,0(r2)
	/* Act upon the interrupt */
    *pCount = *pCount + 1;
     a2c:	e0bffd17 	ldw	r2,-12(fp)
     a30:	10800017 	ldw	r2,0(r2)
     a34:	10c00044 	addi	r3,r2,1
     a38:	e0bffd17 	ldw	r2,-12(fp)
     a3c:	10c00015 	stw	r3,0(r2)
	/* Display count value 
	 * (Is this the best place to do this? 
	 * Why or why not?) 
	 */
	HexDisplay((alt_u32*)HEX3_HEX0_BASE, *pCount);
     a40:	e0bffd17 	ldw	r2,-12(fp)
     a44:	10800017 	ldw	r2,0(r2)
     a48:	10bfffcc 	andi	r2,r2,65535
     a4c:	100b883a 	mov	r5,r2
     a50:	01040034 	movhi	r4,4096
     a54:	21000804 	addi	r4,r4,32
     a58:	00002c80 	call	2c8 <HexDisplay>

	return;
     a5c:	0001883a 	nop
}
     a60:	e037883a 	mov	sp,fp
     a64:	dfc00117 	ldw	ra,4(sp)
     a68:	df000017 	ldw	fp,0(sp)
     a6c:	dec00204 	addi	sp,sp,8
     a70:	f800283a 	ret

00000a74 <memcpy>:
     a74:	defffd04 	addi	sp,sp,-12
     a78:	dfc00215 	stw	ra,8(sp)
     a7c:	dc400115 	stw	r17,4(sp)
     a80:	dc000015 	stw	r16,0(sp)
     a84:	00c003c4 	movi	r3,15
     a88:	2005883a 	mov	r2,r4
     a8c:	1980452e 	bgeu	r3,r6,ba4 <memcpy+0x130>
     a90:	2906b03a 	or	r3,r5,r4
     a94:	18c000cc 	andi	r3,r3,3
     a98:	1800441e 	bne	r3,zero,bac <memcpy+0x138>
     a9c:	347ffc04 	addi	r17,r6,-16
     aa0:	8822d13a 	srli	r17,r17,4
     aa4:	28c00104 	addi	r3,r5,4
     aa8:	23400104 	addi	r13,r4,4
     aac:	8820913a 	slli	r16,r17,4
     ab0:	2b000204 	addi	r12,r5,8
     ab4:	22c00204 	addi	r11,r4,8
     ab8:	84000504 	addi	r16,r16,20
     abc:	2a800304 	addi	r10,r5,12
     ac0:	22400304 	addi	r9,r4,12
     ac4:	2c21883a 	add	r16,r5,r16
     ac8:	2811883a 	mov	r8,r5
     acc:	200f883a 	mov	r7,r4
     ad0:	41000017 	ldw	r4,0(r8)
     ad4:	1fc00017 	ldw	ra,0(r3)
     ad8:	63c00017 	ldw	r15,0(r12)
     adc:	39000015 	stw	r4,0(r7)
     ae0:	53800017 	ldw	r14,0(r10)
     ae4:	6fc00015 	stw	ra,0(r13)
     ae8:	5bc00015 	stw	r15,0(r11)
     aec:	4b800015 	stw	r14,0(r9)
     af0:	18c00404 	addi	r3,r3,16
     af4:	39c00404 	addi	r7,r7,16
     af8:	42000404 	addi	r8,r8,16
     afc:	6b400404 	addi	r13,r13,16
     b00:	63000404 	addi	r12,r12,16
     b04:	5ac00404 	addi	r11,r11,16
     b08:	52800404 	addi	r10,r10,16
     b0c:	4a400404 	addi	r9,r9,16
     b10:	1c3fef1e 	bne	r3,r16,ad0 <__alt_mem_VGA_Subsystem_Char_Buf_Subsystem_Onchip_SRAM+0xf7000ad0>
     b14:	89c00044 	addi	r7,r17,1
     b18:	380e913a 	slli	r7,r7,4
     b1c:	310003cc 	andi	r4,r6,15
     b20:	02c000c4 	movi	r11,3
     b24:	11c7883a 	add	r3,r2,r7
     b28:	29cb883a 	add	r5,r5,r7
     b2c:	5900212e 	bgeu	r11,r4,bb4 <memcpy+0x140>
     b30:	1813883a 	mov	r9,r3
     b34:	2811883a 	mov	r8,r5
     b38:	200f883a 	mov	r7,r4
     b3c:	42800017 	ldw	r10,0(r8)
     b40:	4a400104 	addi	r9,r9,4
     b44:	39ffff04 	addi	r7,r7,-4
     b48:	4abfff15 	stw	r10,-4(r9)
     b4c:	42000104 	addi	r8,r8,4
     b50:	59fffa36 	bltu	r11,r7,b3c <__alt_mem_VGA_Subsystem_Char_Buf_Subsystem_Onchip_SRAM+0xf7000b3c>
     b54:	213fff04 	addi	r4,r4,-4
     b58:	2008d0ba 	srli	r4,r4,2
     b5c:	318000cc 	andi	r6,r6,3
     b60:	21000044 	addi	r4,r4,1
     b64:	2109883a 	add	r4,r4,r4
     b68:	2109883a 	add	r4,r4,r4
     b6c:	1907883a 	add	r3,r3,r4
     b70:	290b883a 	add	r5,r5,r4
     b74:	30000626 	beq	r6,zero,b90 <memcpy+0x11c>
     b78:	198d883a 	add	r6,r3,r6
     b7c:	29c00003 	ldbu	r7,0(r5)
     b80:	18c00044 	addi	r3,r3,1
     b84:	29400044 	addi	r5,r5,1
     b88:	19ffffc5 	stb	r7,-1(r3)
     b8c:	19bffb1e 	bne	r3,r6,b7c <__alt_mem_VGA_Subsystem_Char_Buf_Subsystem_Onchip_SRAM+0xf7000b7c>
     b90:	dfc00217 	ldw	ra,8(sp)
     b94:	dc400117 	ldw	r17,4(sp)
     b98:	dc000017 	ldw	r16,0(sp)
     b9c:	dec00304 	addi	sp,sp,12
     ba0:	f800283a 	ret
     ba4:	2007883a 	mov	r3,r4
     ba8:	003ff206 	br	b74 <__alt_mem_VGA_Subsystem_Char_Buf_Subsystem_Onchip_SRAM+0xf7000b74>
     bac:	2007883a 	mov	r3,r4
     bb0:	003ff106 	br	b78 <__alt_mem_VGA_Subsystem_Char_Buf_Subsystem_Onchip_SRAM+0xf7000b78>
     bb4:	200d883a 	mov	r6,r4
     bb8:	003fee06 	br	b74 <__alt_mem_VGA_Subsystem_Char_Buf_Subsystem_Onchip_SRAM+0xf7000b74>

00000bbc <alt_irq_register>:
 */
 
int alt_irq_register (alt_u32 id, 
                      void* context, 
                      alt_isr_func handler)
{
     bbc:	defff004 	addi	sp,sp,-64
     bc0:	df000f15 	stw	fp,60(sp)
     bc4:	df000f04 	addi	fp,sp,60
     bc8:	e13ffd15 	stw	r4,-12(fp)
     bcc:	e17ffe15 	stw	r5,-8(fp)
     bd0:	e1bfff15 	stw	r6,-4(fp)
  int rc = -EINVAL;  
     bd4:	00bffa84 	movi	r2,-22
     bd8:	e0bff115 	stw	r2,-60(fp)
  alt_irq_context status;

  if (id < ALT_NIRQ)
     bdc:	e0bffd17 	ldw	r2,-12(fp)
     be0:	10800828 	cmpgeui	r2,r2,32
     be4:	10005c1e 	bne	r2,zero,d58 <alt_irq_register+0x19c>
static ALT_INLINE alt_irq_context ALT_ALWAYS_INLINE 
       alt_irq_disable_all (void)
{
  alt_irq_context context;

  NIOS2_READ_STATUS (context);
     be8:	0005303a 	rdctl	r2,status
     bec:	e0bff615 	stw	r2,-40(fp)

  NIOS2_WRITE_STATUS (context & ~NIOS2_STATUS_PIE_MSK);
     bf0:	e0fff617 	ldw	r3,-40(fp)
     bf4:	00bfff84 	movi	r2,-2
     bf8:	1884703a 	and	r2,r3,r2
     bfc:	1001703a 	wrctl	status,r2
  
  return context;
     c00:	e0bff617 	ldw	r2,-40(fp)
     * interrupts are disabled while the handler tables are updated to ensure
     * that an interrupt doesn't occur while the tables are in an inconsistant
     * state.
     */

    status = alt_irq_disable_all ();
     c04:	e0bff315 	stw	r2,-52(fp)

    alt_irq[id].handler = handler;
     c08:	00800034 	movhi	r2,0
     c0c:	109de804 	addi	r2,r2,30624
     c10:	e0fffd17 	ldw	r3,-12(fp)
     c14:	180690fa 	slli	r3,r3,3
     c18:	10c5883a 	add	r2,r2,r3
     c1c:	e0ffff17 	ldw	r3,-4(fp)
     c20:	10c00015 	stw	r3,0(r2)
    alt_irq[id].context = context;
     c24:	00800034 	movhi	r2,0
     c28:	109de804 	addi	r2,r2,30624
     c2c:	e0fffd17 	ldw	r3,-12(fp)
     c30:	180690fa 	slli	r3,r3,3
     c34:	10c5883a 	add	r2,r2,r3
     c38:	10800104 	addi	r2,r2,4
     c3c:	e0fffe17 	ldw	r3,-8(fp)
     c40:	10c00015 	stw	r3,0(r2)

    rc = (handler) ? alt_irq_enable (id): alt_irq_disable (id);
     c44:	e0bfff17 	ldw	r2,-4(fp)
     c48:	10001f26 	beq	r2,zero,cc8 <alt_irq_register+0x10c>
     c4c:	e0bffd17 	ldw	r2,-12(fp)
     c50:	e0bff215 	stw	r2,-56(fp)
static ALT_INLINE alt_irq_context ALT_ALWAYS_INLINE 
       alt_irq_disable_all (void)
{
  alt_irq_context context;

  NIOS2_READ_STATUS (context);
     c54:	0005303a 	rdctl	r2,status
     c58:	e0bff715 	stw	r2,-36(fp)

  NIOS2_WRITE_STATUS (context & ~NIOS2_STATUS_PIE_MSK);
     c5c:	e0fff717 	ldw	r3,-36(fp)
     c60:	00bfff84 	movi	r2,-2
     c64:	1884703a 	and	r2,r3,r2
     c68:	1001703a 	wrctl	status,r2
  
  return context;
     c6c:	e0bff717 	ldw	r2,-36(fp)
static ALT_INLINE int ALT_ALWAYS_INLINE alt_irq_enable (alt_u32 id)
{
  alt_irq_context  status;
  extern volatile alt_u32 alt_irq_active;

  status = alt_irq_disable_all ();
     c70:	e0bff815 	stw	r2,-32(fp)

  alt_irq_active |= (1 << id);
     c74:	00c00044 	movi	r3,1
     c78:	e0bff217 	ldw	r2,-56(fp)
     c7c:	1884983a 	sll	r2,r3,r2
     c80:	1007883a 	mov	r3,r2
     c84:	00800034 	movhi	r2,0
     c88:	109de004 	addi	r2,r2,30592
     c8c:	10800017 	ldw	r2,0(r2)
     c90:	1886b03a 	or	r3,r3,r2
     c94:	00800034 	movhi	r2,0
     c98:	109de004 	addi	r2,r2,30592
     c9c:	10c00015 	stw	r3,0(r2)
  NIOS2_WRITE_IENABLE (alt_irq_active);
     ca0:	00800034 	movhi	r2,0
     ca4:	109de004 	addi	r2,r2,30592
     ca8:	10800017 	ldw	r2,0(r2)
     cac:	100170fa 	wrctl	ienable,r2
     cb0:	e0bff817 	ldw	r2,-32(fp)
     cb4:	e0bff915 	stw	r2,-28(fp)
  status &= ~NIOS2_STATUS_PIE_MSK;
  status |= (context & NIOS2_STATUS_PIE_MSK);
  
  NIOS2_WRITE_STATUS (status);
#else
  NIOS2_WRITE_STATUS (context);
     cb8:	e0bff917 	ldw	r2,-28(fp)
     cbc:	1001703a 	wrctl	status,r2

  alt_irq_enable_all(status);

  return 0;
     cc0:	0005883a 	mov	r2,zero
     cc4:	00001f06 	br	d44 <alt_irq_register+0x188>
     cc8:	e0bffd17 	ldw	r2,-12(fp)
     ccc:	e0bff415 	stw	r2,-48(fp)
static ALT_INLINE alt_irq_context ALT_ALWAYS_INLINE 
       alt_irq_disable_all (void)
{
  alt_irq_context context;

  NIOS2_READ_STATUS (context);
     cd0:	0005303a 	rdctl	r2,status
     cd4:	e0bffa15 	stw	r2,-24(fp)

  NIOS2_WRITE_STATUS (context & ~NIOS2_STATUS_PIE_MSK);
     cd8:	e0fffa17 	ldw	r3,-24(fp)
     cdc:	00bfff84 	movi	r2,-2
     ce0:	1884703a 	and	r2,r3,r2
     ce4:	1001703a 	wrctl	status,r2
  
  return context;
     ce8:	e0bffa17 	ldw	r2,-24(fp)
static ALT_INLINE int ALT_ALWAYS_INLINE alt_irq_disable (alt_u32 id)
{
  alt_irq_context  status;
  extern volatile alt_u32 alt_irq_active;

  status = alt_irq_disable_all ();
     cec:	e0bffb15 	stw	r2,-20(fp)

  alt_irq_active &= ~(1 << id);
     cf0:	00c00044 	movi	r3,1
     cf4:	e0bff417 	ldw	r2,-48(fp)
     cf8:	1884983a 	sll	r2,r3,r2
     cfc:	0084303a 	nor	r2,zero,r2
     d00:	1007883a 	mov	r3,r2
     d04:	00800034 	movhi	r2,0
     d08:	109de004 	addi	r2,r2,30592
     d0c:	10800017 	ldw	r2,0(r2)
     d10:	1886703a 	and	r3,r3,r2
     d14:	00800034 	movhi	r2,0
     d18:	109de004 	addi	r2,r2,30592
     d1c:	10c00015 	stw	r3,0(r2)
  NIOS2_WRITE_IENABLE (alt_irq_active);
     d20:	00800034 	movhi	r2,0
     d24:	109de004 	addi	r2,r2,30592
     d28:	10800017 	ldw	r2,0(r2)
     d2c:	100170fa 	wrctl	ienable,r2
     d30:	e0bffb17 	ldw	r2,-20(fp)
     d34:	e0bffc15 	stw	r2,-16(fp)
  status &= ~NIOS2_STATUS_PIE_MSK;
  status |= (context & NIOS2_STATUS_PIE_MSK);
  
  NIOS2_WRITE_STATUS (status);
#else
  NIOS2_WRITE_STATUS (context);
     d38:	e0bffc17 	ldw	r2,-16(fp)
     d3c:	1001703a 	wrctl	status,r2

  alt_irq_enable_all(status);

  return 0;
     d40:	0005883a 	mov	r2,zero
     d44:	e0bff115 	stw	r2,-60(fp)
     d48:	e0bff317 	ldw	r2,-52(fp)
     d4c:	e0bff515 	stw	r2,-44(fp)
     d50:	e0bff517 	ldw	r2,-44(fp)
     d54:	1001703a 	wrctl	status,r2

    alt_irq_enable_all(status);
  }
  return rc; 
     d58:	e0bff117 	ldw	r2,-60(fp)
}
     d5c:	e037883a 	mov	sp,fp
     d60:	df000017 	ldw	fp,0(sp)
     d64:	dec00104 	addi	sp,sp,4
     d68:	f800283a 	ret

00000d6c <alt_load_section>:
 */

static void ALT_INLINE alt_load_section (alt_u32* from, 
                                         alt_u32* to, 
                                         alt_u32* end)
{
     d6c:	defffc04 	addi	sp,sp,-16
     d70:	df000315 	stw	fp,12(sp)
     d74:	df000304 	addi	fp,sp,12
     d78:	e13ffd15 	stw	r4,-12(fp)
     d7c:	e17ffe15 	stw	r5,-8(fp)
     d80:	e1bfff15 	stw	r6,-4(fp)
  if (to != from)
     d84:	e0fffe17 	ldw	r3,-8(fp)
     d88:	e0bffd17 	ldw	r2,-12(fp)
     d8c:	18800c26 	beq	r3,r2,dc0 <alt_load_section+0x54>
  {
    while( to != end )
     d90:	00000806 	br	db4 <alt_load_section+0x48>
    {
      *to++ = *from++;
     d94:	e0bffe17 	ldw	r2,-8(fp)
     d98:	10c00104 	addi	r3,r2,4
     d9c:	e0fffe15 	stw	r3,-8(fp)
     da0:	e0fffd17 	ldw	r3,-12(fp)
     da4:	19000104 	addi	r4,r3,4
     da8:	e13ffd15 	stw	r4,-12(fp)
     dac:	18c00017 	ldw	r3,0(r3)
     db0:	10c00015 	stw	r3,0(r2)
                                         alt_u32* to, 
                                         alt_u32* end)
{
  if (to != from)
  {
    while( to != end )
     db4:	e0fffe17 	ldw	r3,-8(fp)
     db8:	e0bfff17 	ldw	r2,-4(fp)
     dbc:	18bff51e 	bne	r3,r2,d94 <__alt_mem_VGA_Subsystem_Char_Buf_Subsystem_Onchip_SRAM+0xf7000d94>
    {
      *to++ = *from++;
    }
  }
}
     dc0:	0001883a 	nop
     dc4:	e037883a 	mov	sp,fp
     dc8:	df000017 	ldw	fp,0(sp)
     dcc:	dec00104 	addi	sp,sp,4
     dd0:	f800283a 	ret

00000dd4 <alt_load>:
 * there is no bootloader, so this application is responsible for loading to
 * RAM any sections that are required.
 */  

void alt_load (void)
{
     dd4:	defffe04 	addi	sp,sp,-8
     dd8:	dfc00115 	stw	ra,4(sp)
     ddc:	df000015 	stw	fp,0(sp)
     de0:	d839883a 	mov	fp,sp
  /* 
   * Copy the .rwdata section. 
   */

  alt_load_section (&__flash_rwdata_start, 
     de4:	01800034 	movhi	r6,0
     de8:	31977904 	addi	r6,r6,24036
     dec:	01400034 	movhi	r5,0
     df0:	29511404 	addi	r5,r5,17488
     df4:	01000034 	movhi	r4,0
     df8:	21177904 	addi	r4,r4,24036
     dfc:	0000d6c0 	call	d6c <alt_load_section>

  /*
   * Copy the exception handler.
   */

  alt_load_section (&__flash_exceptions_start, 
     e00:	01800034 	movhi	r6,0
     e04:	31809204 	addi	r6,r6,584
     e08:	01400034 	movhi	r5,0
     e0c:	29400804 	addi	r5,r5,32
     e10:	01000034 	movhi	r4,0
     e14:	21000804 	addi	r4,r4,32
     e18:	0000d6c0 	call	d6c <alt_load_section>

  /*
   * Copy the .rodata section.
   */

  alt_load_section (&__flash_rodata_start, 
     e1c:	01800034 	movhi	r6,0
     e20:	31911404 	addi	r6,r6,17488
     e24:	01400034 	movhi	r5,0
     e28:	2950b304 	addi	r5,r5,17100
     e2c:	01000034 	movhi	r4,0
     e30:	2110b304 	addi	r4,r4,17100
     e34:	0000d6c0 	call	d6c <alt_load_section>
  
  /*
   * Now ensure that the caches are in synch.
   */
  
  alt_dcache_flush_all();
     e38:	00033080 	call	3308 <alt_dcache_flush_all>
  alt_icache_flush_all();
     e3c:	00035980 	call	3598 <alt_icache_flush_all>
}
     e40:	0001883a 	nop
     e44:	e037883a 	mov	sp,fp
     e48:	dfc00117 	ldw	ra,4(sp)
     e4c:	df000017 	ldw	fp,0(sp)
     e50:	dec00204 	addi	sp,sp,8
     e54:	f800283a 	ret

00000e58 <alt_main>:
 * devices/filesystems/components in the system; and call the entry point for
 * the users application, i.e. main().
 */

void alt_main (void)
{
     e58:	defffd04 	addi	sp,sp,-12
     e5c:	dfc00215 	stw	ra,8(sp)
     e60:	df000115 	stw	fp,4(sp)
     e64:	df000104 	addi	fp,sp,4
#endif

  /* ALT LOG - please see HAL/sys/alt_log_printf.h for details */
  ALT_LOG_PRINT_BOOT("[alt_main.c] Entering alt_main, calling alt_irq_init.\r\n");
  /* Initialize the interrupt controller. */
  alt_irq_init (NULL);
     e68:	0009883a 	mov	r4,zero
     e6c:	0000f0c0 	call	f0c <alt_irq_init>

  /* Initialize the operating system */
  ALT_LOG_PRINT_BOOT("[alt_main.c] Done alt_irq_init, calling alt_os_init.\r\n");
  ALT_OS_INIT();
     e70:	0001883a 	nop
  ALT_LOG_PRINT_BOOT("[alt_main.c] Done OS Init, calling alt_sem_create.\r\n");
  ALT_SEM_CREATE (&alt_fd_list_lock, 1);

  /* Initialize the device drivers/software components. */
  ALT_LOG_PRINT_BOOT("[alt_main.c] Calling alt_sys_init.\r\n");
  alt_sys_init();
     e74:	0000f440 	call	f44 <alt_sys_init>
   * devices be present (not equal to /dev/null) and if direct drivers
   * aren't being used.
   */

    ALT_LOG_PRINT_BOOT("[alt_main.c] Redirecting IO.\r\n");
    alt_io_redirect(ALT_STDOUT, ALT_STDIN, ALT_STDERR);
     e78:	01800034 	movhi	r6,0
     e7c:	3190b704 	addi	r6,r6,17116
     e80:	01400034 	movhi	r5,0
     e84:	2950b704 	addi	r5,r5,17116
     e88:	01000034 	movhi	r4,0
     e8c:	2110b704 	addi	r4,r4,17116
     e90:	00036900 	call	3690 <alt_io_redirect>
  /* 
   * Call the C++ constructors 
   */

  ALT_LOG_PRINT_BOOT("[alt_main.c] Calling C++ constructors.\r\n");
  _do_ctors ();
     e94:	00034480 	call	3448 <_do_ctors>
   * redefined as _exit()). This is in the interest of reducing code footprint,
   * in that the atexit() overhead is removed when it's not needed.
   */

  ALT_LOG_PRINT_BOOT("[alt_main.c] Calling atexit.\r\n");
  atexit (_do_dtors);
     e98:	01000034 	movhi	r4,0
     e9c:	210d2a04 	addi	r4,r4,13480
     ea0:	0003ea00 	call	3ea0 <atexit>
  ALT_LOG_PRINT_BOOT("[alt_main.c] Calling main.\r\n");

#ifdef ALT_NO_EXIT
  main (alt_argc, alt_argv, alt_envp);
#else
  result = main (alt_argc, alt_argv, alt_envp);
     ea4:	d0a67317 	ldw	r2,-26164(gp)
     ea8:	d0e67417 	ldw	r3,-26160(gp)
     eac:	d1267517 	ldw	r4,-26156(gp)
     eb0:	200d883a 	mov	r6,r4
     eb4:	180b883a 	mov	r5,r3
     eb8:	1009883a 	mov	r4,r2
     ebc:	00003580 	call	358 <main>
     ec0:	e0bfff15 	stw	r2,-4(fp)
  close(STDOUT_FILENO);
     ec4:	01000044 	movi	r4,1
     ec8:	00032380 	call	3238 <close>
  exit (result);
     ecc:	e13fff17 	ldw	r4,-4(fp)
     ed0:	0003eb40 	call	3eb4 <exit>

00000ed4 <alt_dev_reg>:
 */

extern int alt_fs_reg  (alt_dev* dev); 

static ALT_INLINE int alt_dev_reg (alt_dev* dev)
{
     ed4:	defffd04 	addi	sp,sp,-12
     ed8:	dfc00215 	stw	ra,8(sp)
     edc:	df000115 	stw	fp,4(sp)
     ee0:	df000104 	addi	fp,sp,4
     ee4:	e13fff15 	stw	r4,-4(fp)
  extern alt_llist alt_dev_list;

  return alt_dev_llist_insert ((alt_dev_llist*) dev, &alt_dev_list);
     ee8:	01400034 	movhi	r5,0
     eec:	29577104 	addi	r5,r5,24004
     ef0:	e13fff17 	ldw	r4,-4(fp)
     ef4:	00033a40 	call	33a4 <alt_dev_llist_insert>
}
     ef8:	e037883a 	mov	sp,fp
     efc:	dfc00117 	ldw	ra,4(sp)
     f00:	df000017 	ldw	fp,0(sp)
     f04:	dec00204 	addi	sp,sp,8
     f08:	f800283a 	ret

00000f0c <alt_irq_init>:
 * The "base" parameter is ignored and only
 * present for backwards-compatibility.
 */

void alt_irq_init ( const void* base )
{
     f0c:	defffd04 	addi	sp,sp,-12
     f10:	dfc00215 	stw	ra,8(sp)
     f14:	df000115 	stw	fp,4(sp)
     f18:	df000104 	addi	fp,sp,4
     f1c:	e13fff15 	stw	r4,-4(fp)
    ALTERA_NIOS2_GEN2_IRQ_INIT ( NIOS2, Nios2);
     f20:	0003b880 	call	3b88 <altera_nios2_gen2_irq_init>
 * alt_irq_cpu_enable_interrupts() enables the CPU to start taking interrupts.
 */
static ALT_INLINE void ALT_ALWAYS_INLINE 
       alt_irq_cpu_enable_interrupts (void)
{
    NIOS2_WRITE_STATUS(NIOS2_STATUS_PIE_MSK
     f24:	00800044 	movi	r2,1
     f28:	1001703a 	wrctl	status,r2
    alt_irq_cpu_enable_interrupts();
}
     f2c:	0001883a 	nop
     f30:	e037883a 	mov	sp,fp
     f34:	dfc00117 	ldw	ra,4(sp)
     f38:	df000017 	ldw	fp,0(sp)
     f3c:	dec00204 	addi	sp,sp,8
     f40:	f800283a 	ret

00000f44 <alt_sys_init>:
 * Initialize the non-interrupt controller devices.
 * Called after alt_irq_init().
 */

void alt_sys_init( void )
{
     f44:	defffd04 	addi	sp,sp,-12
     f48:	dfc00215 	stw	ra,8(sp)
     f4c:	df000115 	stw	fp,4(sp)
     f50:	df000104 	addi	fp,sp,4
    ALTERA_AVALON_TIMER_INIT ( INTERVAL_TIMER, Interval_Timer);
     f54:	01c00204 	movi	r7,8
     f58:	000d883a 	mov	r6,zero
     f5c:	000b883a 	mov	r5,zero
     f60:	01040034 	movhi	r4,4096
     f64:	21080004 	addi	r4,r4,8192
     f68:	0001d540 	call	1d54 <alt_avalon_timer_sc_init>
    ALTERA_AVALON_JTAG_UART_INIT ( JTAG_UART, JTAG_UART);
     f6c:	01800204 	movi	r6,8
     f70:	000b883a 	mov	r5,zero
     f74:	01000034 	movhi	r4,0
     f78:	21111e04 	addi	r4,r4,17528
     f7c:	00013cc0 	call	13cc <altera_avalon_jtag_uart_init>
     f80:	01000034 	movhi	r4,0
     f84:	21111404 	addi	r4,r4,17488
     f88:	0000ed40 	call	ed4 <alt_dev_reg>
    ALTERA_AVALON_SYSID_QSYS_INIT ( SYSID, SysID);
     f8c:	0001883a 	nop
    ALTERA_UP_AVALON_AUDIO_AND_VIDEO_CONFIG_INIT ( AV_CONFIG, AV_Config);
     f90:	01000034 	movhi	r4,0
     f94:	21152c04 	addi	r4,r4,21680
     f98:	0000ed40 	call	ed4 <alt_dev_reg>
    ALTERA_UP_AVALON_AUDIO_INIT ( AUDIO_SUBSYSTEM_AUDIO, Audio_Subsystem_Audio);
     f9c:	01000034 	movhi	r4,0
     fa0:	21153804 	addi	r4,r4,21728
     fa4:	0000ed40 	call	ed4 <alt_dev_reg>
    ALTERA_UP_AVALON_CHARACTER_LCD_INIT ( CHAR_LCD_16X2, Char_LCD_16x2);
     fa8:	01000034 	movhi	r4,0
     fac:	21154404 	addi	r4,r4,21776
     fb0:	0001e8c0 	call	1e8c <alt_up_character_lcd_init>
     fb4:	01000034 	movhi	r4,0
     fb8:	21154404 	addi	r4,r4,21776
     fbc:	0000ed40 	call	ed4 <alt_dev_reg>
    ALTERA_UP_AVALON_IRDA_INIT ( IRDA, IrDA);
     fc0:	01000034 	movhi	r4,0
     fc4:	21154f04 	addi	r4,r4,21820
     fc8:	0000ed40 	call	ed4 <alt_dev_reg>
    ALTERA_UP_AVALON_PARALLEL_PORT_INIT ( EXPANSION_JP5, Expansion_JP5);
     fcc:	01000034 	movhi	r4,0
     fd0:	21155a04 	addi	r4,r4,21864
     fd4:	0000ed40 	call	ed4 <alt_dev_reg>
    ALTERA_UP_AVALON_PARALLEL_PORT_INIT ( GREEN_LEDS, Green_LEDs);
     fd8:	01000034 	movhi	r4,0
     fdc:	21156504 	addi	r4,r4,21908
     fe0:	0000ed40 	call	ed4 <alt_dev_reg>
    ALTERA_UP_AVALON_PARALLEL_PORT_INIT ( HEX3_HEX0, HEX3_HEX0);
     fe4:	01000034 	movhi	r4,0
     fe8:	21157004 	addi	r4,r4,21952
     fec:	0000ed40 	call	ed4 <alt_dev_reg>
    ALTERA_UP_AVALON_PARALLEL_PORT_INIT ( HEX7_HEX4, HEX7_HEX4);
     ff0:	01000034 	movhi	r4,0
     ff4:	21157b04 	addi	r4,r4,21996
     ff8:	0000ed40 	call	ed4 <alt_dev_reg>
    ALTERA_UP_AVALON_PARALLEL_PORT_INIT ( PUSHBUTTONS, Pushbuttons);
     ffc:	01000034 	movhi	r4,0
    1000:	21158604 	addi	r4,r4,22040
    1004:	0000ed40 	call	ed4 <alt_dev_reg>
    ALTERA_UP_AVALON_PARALLEL_PORT_INIT ( RED_LEDS, Red_LEDs);
    1008:	01000034 	movhi	r4,0
    100c:	21159104 	addi	r4,r4,22084
    1010:	0000ed40 	call	ed4 <alt_dev_reg>
    ALTERA_UP_AVALON_PARALLEL_PORT_INIT ( SLIDER_SWITCHES, Slider_Switches);
    1014:	01000034 	movhi	r4,0
    1018:	21159c04 	addi	r4,r4,22128
    101c:	0000ed40 	call	ed4 <alt_dev_reg>
    ALTERA_UP_AVALON_PS2_INIT ( PS2_PORT, PS2_Port);
    1020:	01000034 	movhi	r4,0
    1024:	2115a704 	addi	r4,r4,22172
    1028:	00027880 	call	2788 <alt_up_ps2_init>
    102c:	01000034 	movhi	r4,0
    1030:	2115a704 	addi	r4,r4,22172
    1034:	0000ed40 	call	ed4 <alt_dev_reg>
    ALTERA_UP_AVALON_PS2_INIT ( PS2_PORT_DUAL, PS2_Port_Dual);
    1038:	01000034 	movhi	r4,0
    103c:	2115b504 	addi	r4,r4,22228
    1040:	00027880 	call	2788 <alt_up_ps2_init>
    1044:	01000034 	movhi	r4,0
    1048:	2115b504 	addi	r4,r4,22228
    104c:	0000ed40 	call	ed4 <alt_dev_reg>
    ALTERA_UP_AVALON_RS232_INIT ( SERIAL_PORT, Serial_Port);
    1050:	01000034 	movhi	r4,0
    1054:	2115c304 	addi	r4,r4,22284
    1058:	0000ed40 	call	ed4 <alt_dev_reg>
    ALTERA_UP_AVALON_USB_INIT ( USB, USB);
    105c:	01000034 	movhi	r4,0
    1060:	2115ce04 	addi	r4,r4,22328
    1064:	0000ed40 	call	ed4 <alt_dev_reg>
    ALTERA_UP_AVALON_VIDEO_PIXEL_BUFFER_DMA_INIT ( VGA_SUBSYSTEM_VGA_PIXEL_DMA, VGA_Subsystem_VGA_Pixel_DMA);
    1068:	00800034 	movhi	r2,0
    106c:	1095db04 	addi	r2,r2,22380
    1070:	10800a17 	ldw	r2,40(r2)
    1074:	10800017 	ldw	r2,0(r2)
    1078:	1007883a 	mov	r3,r2
    107c:	00800034 	movhi	r2,0
    1080:	1095db04 	addi	r2,r2,22380
    1084:	10c00b15 	stw	r3,44(r2)
    1088:	00800034 	movhi	r2,0
    108c:	1095db04 	addi	r2,r2,22380
    1090:	10800a17 	ldw	r2,40(r2)
    1094:	10800104 	addi	r2,r2,4
    1098:	10800017 	ldw	r2,0(r2)
    109c:	1007883a 	mov	r3,r2
    10a0:	00800034 	movhi	r2,0
    10a4:	1095db04 	addi	r2,r2,22380
    10a8:	10c00c15 	stw	r3,48(r2)
    10ac:	00800034 	movhi	r2,0
    10b0:	1095db04 	addi	r2,r2,22380
    10b4:	10800a17 	ldw	r2,40(r2)
    10b8:	10800204 	addi	r2,r2,8
    10bc:	10800017 	ldw	r2,0(r2)
    10c0:	10ffffcc 	andi	r3,r2,65535
    10c4:	00800034 	movhi	r2,0
    10c8:	1095db04 	addi	r2,r2,22380
    10cc:	10c00f15 	stw	r3,60(r2)
    10d0:	00800034 	movhi	r2,0
    10d4:	1095db04 	addi	r2,r2,22380
    10d8:	10800a17 	ldw	r2,40(r2)
    10dc:	10800204 	addi	r2,r2,8
    10e0:	10800017 	ldw	r2,0(r2)
    10e4:	1006d43a 	srli	r3,r2,16
    10e8:	00800034 	movhi	r2,0
    10ec:	1095db04 	addi	r2,r2,22380
    10f0:	10c01015 	stw	r3,64(r2)
    10f4:	00800034 	movhi	r2,0
    10f8:	1095db04 	addi	r2,r2,22380
    10fc:	10800a17 	ldw	r2,40(r2)
    1100:	10800304 	addi	r2,r2,12
    1104:	10800017 	ldw	r2,0(r2)
    1108:	1005d07a 	srai	r2,r2,1
    110c:	10c0004c 	andi	r3,r2,1
    1110:	00800034 	movhi	r2,0
    1114:	1095db04 	addi	r2,r2,22380
    1118:	10c00d15 	stw	r3,52(r2)
    111c:	00800034 	movhi	r2,0
    1120:	1095db04 	addi	r2,r2,22380
    1124:	10800a17 	ldw	r2,40(r2)
    1128:	10800304 	addi	r2,r2,12
    112c:	10800017 	ldw	r2,0(r2)
    1130:	1005d13a 	srai	r2,r2,4
    1134:	10c003cc 	andi	r3,r2,15
    1138:	00800034 	movhi	r2,0
    113c:	1095db04 	addi	r2,r2,22380
    1140:	10c00e15 	stw	r3,56(r2)
    1144:	00800034 	movhi	r2,0
    1148:	1095db04 	addi	r2,r2,22380
    114c:	10800a17 	ldw	r2,40(r2)
    1150:	10800304 	addi	r2,r2,12
    1154:	10800017 	ldw	r2,0(r2)
    1158:	1005d43a 	srai	r2,r2,16
    115c:	e0bfff05 	stb	r2,-4(fp)
    1160:	00800034 	movhi	r2,0
    1164:	1095db04 	addi	r2,r2,22380
    1168:	10800a17 	ldw	r2,40(r2)
    116c:	10800304 	addi	r2,r2,12
    1170:	10800017 	ldw	r2,0(r2)
    1174:	1004d63a 	srli	r2,r2,24
    1178:	e0bfff45 	stb	r2,-3(fp)
    117c:	00800034 	movhi	r2,0
    1180:	1095db04 	addi	r2,r2,22380
    1184:	10800e17 	ldw	r2,56(r2)
    1188:	10800058 	cmpnei	r2,r2,1
    118c:	1000041e 	bne	r2,zero,11a0 <alt_sys_init+0x25c>
    1190:	00800034 	movhi	r2,0
    1194:	1095db04 	addi	r2,r2,22380
    1198:	10001115 	stw	zero,68(r2)
    119c:	00000e06 	br	11d8 <alt_sys_init+0x294>
    11a0:	00800034 	movhi	r2,0
    11a4:	1095db04 	addi	r2,r2,22380
    11a8:	10800e17 	ldw	r2,56(r2)
    11ac:	10800098 	cmpnei	r2,r2,2
    11b0:	1000051e 	bne	r2,zero,11c8 <alt_sys_init+0x284>
    11b4:	00800034 	movhi	r2,0
    11b8:	1095db04 	addi	r2,r2,22380
    11bc:	00c00044 	movi	r3,1
    11c0:	10c01115 	stw	r3,68(r2)
    11c4:	00000406 	br	11d8 <alt_sys_init+0x294>
    11c8:	00800034 	movhi	r2,0
    11cc:	1095db04 	addi	r2,r2,22380
    11d0:	00c00084 	movi	r3,2
    11d4:	10c01115 	stw	r3,68(r2)
    11d8:	e0bfff03 	ldbu	r2,-4(fp)
    11dc:	00c00804 	movi	r3,32
    11e0:	1885c83a 	sub	r2,r3,r2
    11e4:	00ffffc4 	movi	r3,-1
    11e8:	1886d83a 	srl	r3,r3,r2
    11ec:	00800034 	movhi	r2,0
    11f0:	1095db04 	addi	r2,r2,22380
    11f4:	10c01215 	stw	r3,72(r2)
    11f8:	e0ffff03 	ldbu	r3,-4(fp)
    11fc:	00800034 	movhi	r2,0
    1200:	1095db04 	addi	r2,r2,22380
    1204:	10801117 	ldw	r2,68(r2)
    1208:	1887883a 	add	r3,r3,r2
    120c:	00800034 	movhi	r2,0
    1210:	1095db04 	addi	r2,r2,22380
    1214:	10c01315 	stw	r3,76(r2)
    1218:	e0bfff43 	ldbu	r2,-3(fp)
    121c:	00c00804 	movi	r3,32
    1220:	1885c83a 	sub	r2,r3,r2
    1224:	00ffffc4 	movi	r3,-1
    1228:	1886d83a 	srl	r3,r3,r2
    122c:	00800034 	movhi	r2,0
    1230:	1095db04 	addi	r2,r2,22380
    1234:	10c01415 	stw	r3,80(r2)
    1238:	01000034 	movhi	r4,0
    123c:	2115db04 	addi	r4,r4,22380
    1240:	0000ed40 	call	ed4 <alt_dev_reg>
    ALTERA_UP_SD_CARD_AVALON_INTERFACE_INIT ( SD_CARD, SD_Card);
    1244:	01000034 	movhi	r4,0
    1248:	2115f004 	addi	r4,r4,22464
    124c:	0000ed40 	call	ed4 <alt_dev_reg>
}
    1250:	0001883a 	nop
    1254:	e037883a 	mov	sp,fp
    1258:	dfc00117 	ldw	ra,4(sp)
    125c:	df000017 	ldw	fp,0(sp)
    1260:	dec00204 	addi	sp,sp,8
    1264:	f800283a 	ret

00001268 <altera_avalon_jtag_uart_read_fd>:
 *
 */

int 
altera_avalon_jtag_uart_read_fd(alt_fd* fd, char* buffer, int space)
{
    1268:	defffa04 	addi	sp,sp,-24
    126c:	dfc00515 	stw	ra,20(sp)
    1270:	df000415 	stw	fp,16(sp)
    1274:	df000404 	addi	fp,sp,16
    1278:	e13ffd15 	stw	r4,-12(fp)
    127c:	e17ffe15 	stw	r5,-8(fp)
    1280:	e1bfff15 	stw	r6,-4(fp)
    altera_avalon_jtag_uart_dev* dev = (altera_avalon_jtag_uart_dev*) fd->dev; 
    1284:	e0bffd17 	ldw	r2,-12(fp)
    1288:	10800017 	ldw	r2,0(r2)
    128c:	e0bffc15 	stw	r2,-16(fp)

    return altera_avalon_jtag_uart_read(&dev->state, buffer, space,
    1290:	e0bffc17 	ldw	r2,-16(fp)
    1294:	10c00a04 	addi	r3,r2,40
    1298:	e0bffd17 	ldw	r2,-12(fp)
    129c:	10800217 	ldw	r2,8(r2)
    12a0:	100f883a 	mov	r7,r2
    12a4:	e1bfff17 	ldw	r6,-4(fp)
    12a8:	e17ffe17 	ldw	r5,-8(fp)
    12ac:	1809883a 	mov	r4,r3
    12b0:	00018980 	call	1898 <altera_avalon_jtag_uart_read>
      fd->fd_flags);
}
    12b4:	e037883a 	mov	sp,fp
    12b8:	dfc00117 	ldw	ra,4(sp)
    12bc:	df000017 	ldw	fp,0(sp)
    12c0:	dec00204 	addi	sp,sp,8
    12c4:	f800283a 	ret

000012c8 <altera_avalon_jtag_uart_write_fd>:

int 
altera_avalon_jtag_uart_write_fd(alt_fd* fd, const char* buffer, int space)
{
    12c8:	defffa04 	addi	sp,sp,-24
    12cc:	dfc00515 	stw	ra,20(sp)
    12d0:	df000415 	stw	fp,16(sp)
    12d4:	df000404 	addi	fp,sp,16
    12d8:	e13ffd15 	stw	r4,-12(fp)
    12dc:	e17ffe15 	stw	r5,-8(fp)
    12e0:	e1bfff15 	stw	r6,-4(fp)
    altera_avalon_jtag_uart_dev* dev = (altera_avalon_jtag_uart_dev*) fd->dev; 
    12e4:	e0bffd17 	ldw	r2,-12(fp)
    12e8:	10800017 	ldw	r2,0(r2)
    12ec:	e0bffc15 	stw	r2,-16(fp)

    return altera_avalon_jtag_uart_write(&dev->state, buffer, space,
    12f0:	e0bffc17 	ldw	r2,-16(fp)
    12f4:	10c00a04 	addi	r3,r2,40
    12f8:	e0bffd17 	ldw	r2,-12(fp)
    12fc:	10800217 	ldw	r2,8(r2)
    1300:	100f883a 	mov	r7,r2
    1304:	e1bfff17 	ldw	r6,-4(fp)
    1308:	e17ffe17 	ldw	r5,-8(fp)
    130c:	1809883a 	mov	r4,r3
    1310:	0001ab40 	call	1ab4 <altera_avalon_jtag_uart_write>
      fd->fd_flags);
}
    1314:	e037883a 	mov	sp,fp
    1318:	dfc00117 	ldw	ra,4(sp)
    131c:	df000017 	ldw	fp,0(sp)
    1320:	dec00204 	addi	sp,sp,8
    1324:	f800283a 	ret

00001328 <altera_avalon_jtag_uart_close_fd>:

#ifndef ALTERA_AVALON_JTAG_UART_SMALL

int 
altera_avalon_jtag_uart_close_fd(alt_fd* fd)
{
    1328:	defffc04 	addi	sp,sp,-16
    132c:	dfc00315 	stw	ra,12(sp)
    1330:	df000215 	stw	fp,8(sp)
    1334:	df000204 	addi	fp,sp,8
    1338:	e13fff15 	stw	r4,-4(fp)
    altera_avalon_jtag_uart_dev* dev = (altera_avalon_jtag_uart_dev*) fd->dev; 
    133c:	e0bfff17 	ldw	r2,-4(fp)
    1340:	10800017 	ldw	r2,0(r2)
    1344:	e0bffe15 	stw	r2,-8(fp)

    return altera_avalon_jtag_uart_close(&dev->state, fd->fd_flags);
    1348:	e0bffe17 	ldw	r2,-8(fp)
    134c:	10c00a04 	addi	r3,r2,40
    1350:	e0bfff17 	ldw	r2,-4(fp)
    1354:	10800217 	ldw	r2,8(r2)
    1358:	100b883a 	mov	r5,r2
    135c:	1809883a 	mov	r4,r3
    1360:	00017400 	call	1740 <altera_avalon_jtag_uart_close>
}
    1364:	e037883a 	mov	sp,fp
    1368:	dfc00117 	ldw	ra,4(sp)
    136c:	df000017 	ldw	fp,0(sp)
    1370:	dec00204 	addi	sp,sp,8
    1374:	f800283a 	ret

00001378 <altera_avalon_jtag_uart_ioctl_fd>:

int 
altera_avalon_jtag_uart_ioctl_fd(alt_fd* fd, int req, void* arg)
{
    1378:	defffa04 	addi	sp,sp,-24
    137c:	dfc00515 	stw	ra,20(sp)
    1380:	df000415 	stw	fp,16(sp)
    1384:	df000404 	addi	fp,sp,16
    1388:	e13ffd15 	stw	r4,-12(fp)
    138c:	e17ffe15 	stw	r5,-8(fp)
    1390:	e1bfff15 	stw	r6,-4(fp)
    altera_avalon_jtag_uart_dev* dev = (altera_avalon_jtag_uart_dev*) fd->dev;
    1394:	e0bffd17 	ldw	r2,-12(fp)
    1398:	10800017 	ldw	r2,0(r2)
    139c:	e0bffc15 	stw	r2,-16(fp)

    return altera_avalon_jtag_uart_ioctl(&dev->state, req, arg);
    13a0:	e0bffc17 	ldw	r2,-16(fp)
    13a4:	10800a04 	addi	r2,r2,40
    13a8:	e1bfff17 	ldw	r6,-4(fp)
    13ac:	e17ffe17 	ldw	r5,-8(fp)
    13b0:	1009883a 	mov	r4,r2
    13b4:	00017a80 	call	17a8 <altera_avalon_jtag_uart_ioctl>
}
    13b8:	e037883a 	mov	sp,fp
    13bc:	dfc00117 	ldw	ra,4(sp)
    13c0:	df000017 	ldw	fp,0(sp)
    13c4:	dec00204 	addi	sp,sp,8
    13c8:	f800283a 	ret

000013cc <altera_avalon_jtag_uart_init>:
 * Return 1 on sucessful IRQ register and 0 on failure.
 */

void altera_avalon_jtag_uart_init(altera_avalon_jtag_uart_state* sp, 
                                  int irq_controller_id, int irq)
{
    13cc:	defffb04 	addi	sp,sp,-20
    13d0:	dfc00415 	stw	ra,16(sp)
    13d4:	df000315 	stw	fp,12(sp)
    13d8:	df000304 	addi	fp,sp,12
    13dc:	e13ffd15 	stw	r4,-12(fp)
    13e0:	e17ffe15 	stw	r5,-8(fp)
    13e4:	e1bfff15 	stw	r6,-4(fp)
  ALT_FLAG_CREATE(&sp->events, 0);
  ALT_SEM_CREATE(&sp->read_lock, 1);
  ALT_SEM_CREATE(&sp->write_lock, 1);

  /* enable read interrupts at the device */
  sp->irq_enable = ALTERA_AVALON_JTAG_UART_CONTROL_RE_MSK;
    13e8:	e0bffd17 	ldw	r2,-12(fp)
    13ec:	00c00044 	movi	r3,1
    13f0:	10c00815 	stw	r3,32(r2)

  IOWR_ALTERA_AVALON_JTAG_UART_CONTROL(sp->base, sp->irq_enable); 
    13f4:	e0bffd17 	ldw	r2,-12(fp)
    13f8:	10800017 	ldw	r2,0(r2)
    13fc:	10800104 	addi	r2,r2,4
    1400:	1007883a 	mov	r3,r2
    1404:	e0bffd17 	ldw	r2,-12(fp)
    1408:	10800817 	ldw	r2,32(r2)
    140c:	18800035 	stwio	r2,0(r3)
  /* register the interrupt handler */
#ifdef ALT_ENHANCED_INTERRUPT_API_PRESENT
  alt_ic_isr_register(irq_controller_id, irq, altera_avalon_jtag_uart_irq, 
                      sp, NULL);
#else
  alt_irq_register(irq, sp, altera_avalon_jtag_uart_irq);
    1410:	e0bfff17 	ldw	r2,-4(fp)
    1414:	01800034 	movhi	r6,0
    1418:	31852204 	addi	r6,r6,5256
    141c:	e17ffd17 	ldw	r5,-12(fp)
    1420:	1009883a 	mov	r4,r2
    1424:	0000bbc0 	call	bbc <alt_irq_register>
#endif  

  /* Register an alarm to go off every second to check for presence of host */
  sp->host_inactive = 0;
    1428:	e0bffd17 	ldw	r2,-12(fp)
    142c:	10000915 	stw	zero,36(r2)

  if (alt_alarm_start(&sp->alarm, alt_ticks_per_second(), 
    1430:	e0bffd17 	ldw	r2,-12(fp)
    1434:	10c00204 	addi	r3,r2,8
 * Obtain the system clock rate in ticks/s. 
 */

static ALT_INLINE alt_u32 ALT_ALWAYS_INLINE alt_ticks_per_second (void)
{
  return _alt_tick_rate;
    1438:	00800034 	movhi	r2,0
    143c:	109de404 	addi	r2,r2,30608
    1440:	10800017 	ldw	r2,0(r2)
    1444:	e1fffd17 	ldw	r7,-12(fp)
    1448:	01800034 	movhi	r6,0
    144c:	3185a604 	addi	r6,r6,5784
    1450:	100b883a 	mov	r5,r2
    1454:	1809883a 	mov	r4,r3
    1458:	00030a80 	call	30a8 <alt_alarm_start>
    145c:	1000040e 	bge	r2,zero,1470 <altera_avalon_jtag_uart_init+0xa4>
    &altera_avalon_jtag_uart_timeout, sp) < 0)
  {
    /* If we can't set the alarm then record "don't know if host present" 
     * and behave as though the host is present.
     */
    sp->timeout = INT_MAX;
    1460:	e0fffd17 	ldw	r3,-12(fp)
    1464:	00a00034 	movhi	r2,32768
    1468:	10bfffc4 	addi	r2,r2,-1
    146c:	18800115 	stw	r2,4(r3)
  }

  /* ALT_LOG - see altera_hal/HAL/inc/sys/alt_log_printf.h */ 
  ALT_LOG_JTAG_UART_ALARM_REGISTER(sp, sp->base);
}
    1470:	0001883a 	nop
    1474:	e037883a 	mov	sp,fp
    1478:	dfc00117 	ldw	ra,4(sp)
    147c:	df000017 	ldw	fp,0(sp)
    1480:	dec00204 	addi	sp,sp,8
    1484:	f800283a 	ret

00001488 <altera_avalon_jtag_uart_irq>:
#ifdef ALT_ENHANCED_INTERRUPT_API_PRESENT
static void altera_avalon_jtag_uart_irq(void* context)
#else
static void altera_avalon_jtag_uart_irq(void* context, alt_u32 id)
#endif
{
    1488:	defff704 	addi	sp,sp,-36
    148c:	df000815 	stw	fp,32(sp)
    1490:	df000804 	addi	fp,sp,32
    1494:	e13ffe15 	stw	r4,-8(fp)
    1498:	e17fff15 	stw	r5,-4(fp)
  altera_avalon_jtag_uart_state* sp = (altera_avalon_jtag_uart_state*) context;
    149c:	e0bffe17 	ldw	r2,-8(fp)
    14a0:	e0bffa15 	stw	r2,-24(fp)
  unsigned int base = sp->base;
    14a4:	e0bffa17 	ldw	r2,-24(fp)
    14a8:	10800017 	ldw	r2,0(r2)
    14ac:	e0bffb15 	stw	r2,-20(fp)
  /* ALT_LOG - see altera_hal/HAL/inc/sys/alt_log_printf.h */ 
  ALT_LOG_JTAG_UART_ISR_FUNCTION(base, sp);

  for ( ; ; )
  {
    unsigned int control = IORD_ALTERA_AVALON_JTAG_UART_CONTROL(base);
    14b0:	e0bffb17 	ldw	r2,-20(fp)
    14b4:	10800104 	addi	r2,r2,4
    14b8:	10800037 	ldwio	r2,0(r2)
    14bc:	e0bffc15 	stw	r2,-16(fp)

    /* Return once nothing more to do */
    if ((control & (ALTERA_AVALON_JTAG_UART_CONTROL_RI_MSK | ALTERA_AVALON_JTAG_UART_CONTROL_WI_MSK)) == 0)
    14c0:	e0bffc17 	ldw	r2,-16(fp)
    14c4:	1080c00c 	andi	r2,r2,768
    14c8:	10006d26 	beq	r2,zero,1680 <altera_avalon_jtag_uart_irq+0x1f8>
      break;

    if (control & ALTERA_AVALON_JTAG_UART_CONTROL_RI_MSK)
    14cc:	e0bffc17 	ldw	r2,-16(fp)
    14d0:	1080400c 	andi	r2,r2,256
    14d4:	10003526 	beq	r2,zero,15ac <altera_avalon_jtag_uart_irq+0x124>
    {
      /* process a read irq.  Start by assuming that there is data in the
       * receive FIFO (otherwise why would we have been interrupted?)
       */
      unsigned int data = 1 << ALTERA_AVALON_JTAG_UART_DATA_RAVAIL_OFST;
    14d8:	00800074 	movhi	r2,1
    14dc:	e0bff815 	stw	r2,-32(fp)
      for ( ; ; )
      {
        /* Check whether there is space in the buffer.  If not then we must not
         * read any characters from the buffer as they will be lost.
         */
        unsigned int next = (sp->rx_in + 1) % ALTERA_AVALON_JTAG_UART_BUF_LEN;
    14e0:	e0bffa17 	ldw	r2,-24(fp)
    14e4:	10800a17 	ldw	r2,40(r2)
    14e8:	10800044 	addi	r2,r2,1
    14ec:	1081ffcc 	andi	r2,r2,2047
    14f0:	e0bffd15 	stw	r2,-12(fp)
        if (next == sp->rx_out)
    14f4:	e0bffa17 	ldw	r2,-24(fp)
    14f8:	10c00b17 	ldw	r3,44(r2)
    14fc:	e0bffd17 	ldw	r2,-12(fp)
    1500:	18801526 	beq	r3,r2,1558 <altera_avalon_jtag_uart_irq+0xd0>
          break;

        /* Try to remove a character from the FIFO and find out whether there
         * are any more characters remaining.
         */
        data = IORD_ALTERA_AVALON_JTAG_UART_DATA(base);
    1504:	e0bffb17 	ldw	r2,-20(fp)
    1508:	10800037 	ldwio	r2,0(r2)
    150c:	e0bff815 	stw	r2,-32(fp)
        
        if ((data & ALTERA_AVALON_JTAG_UART_DATA_RVALID_MSK) == 0)
    1510:	e0bff817 	ldw	r2,-32(fp)
    1514:	10a0000c 	andi	r2,r2,32768
    1518:	10001126 	beq	r2,zero,1560 <altera_avalon_jtag_uart_irq+0xd8>
          break;

        sp->rx_buf[sp->rx_in] = (data & ALTERA_AVALON_JTAG_UART_DATA_DATA_MSK) >> ALTERA_AVALON_JTAG_UART_DATA_DATA_OFST;
    151c:	e0bffa17 	ldw	r2,-24(fp)
    1520:	10800a17 	ldw	r2,40(r2)
    1524:	e0fff817 	ldw	r3,-32(fp)
    1528:	1809883a 	mov	r4,r3
    152c:	e0fffa17 	ldw	r3,-24(fp)
    1530:	1885883a 	add	r2,r3,r2
    1534:	10800e04 	addi	r2,r2,56
    1538:	11000005 	stb	r4,0(r2)
        sp->rx_in = (sp->rx_in + 1) % ALTERA_AVALON_JTAG_UART_BUF_LEN;
    153c:	e0bffa17 	ldw	r2,-24(fp)
    1540:	10800a17 	ldw	r2,40(r2)
    1544:	10800044 	addi	r2,r2,1
    1548:	10c1ffcc 	andi	r3,r2,2047
    154c:	e0bffa17 	ldw	r2,-24(fp)
    1550:	10c00a15 	stw	r3,40(r2)

        /* Post an event to notify jtag_uart_read that a character has been read */
        ALT_FLAG_POST (sp->events, ALT_JTAG_UART_READ_RDY, OS_FLAG_SET);
      }
    1554:	003fe206 	br	14e0 <__alt_mem_VGA_Subsystem_Char_Buf_Subsystem_Onchip_SRAM+0xf70014e0>
        /* Check whether there is space in the buffer.  If not then we must not
         * read any characters from the buffer as they will be lost.
         */
        unsigned int next = (sp->rx_in + 1) % ALTERA_AVALON_JTAG_UART_BUF_LEN;
        if (next == sp->rx_out)
          break;
    1558:	0001883a 	nop
    155c:	00000106 	br	1564 <altera_avalon_jtag_uart_irq+0xdc>
         * are any more characters remaining.
         */
        data = IORD_ALTERA_AVALON_JTAG_UART_DATA(base);
        
        if ((data & ALTERA_AVALON_JTAG_UART_DATA_RVALID_MSK) == 0)
          break;
    1560:	0001883a 	nop

        /* Post an event to notify jtag_uart_read that a character has been read */
        ALT_FLAG_POST (sp->events, ALT_JTAG_UART_READ_RDY, OS_FLAG_SET);
      }

      if (data & ALTERA_AVALON_JTAG_UART_DATA_RAVAIL_MSK)
    1564:	e0bff817 	ldw	r2,-32(fp)
    1568:	10bfffec 	andhi	r2,r2,65535
    156c:	10000f26 	beq	r2,zero,15ac <altera_avalon_jtag_uart_irq+0x124>
      {
        /* If there is still data available here then the buffer is full 
         * so turn off receive interrupts until some space becomes available.
         */
        sp->irq_enable &= ~ALTERA_AVALON_JTAG_UART_CONTROL_RE_MSK;
    1570:	e0bffa17 	ldw	r2,-24(fp)
    1574:	10c00817 	ldw	r3,32(r2)
    1578:	00bfff84 	movi	r2,-2
    157c:	1886703a 	and	r3,r3,r2
    1580:	e0bffa17 	ldw	r2,-24(fp)
    1584:	10c00815 	stw	r3,32(r2)
        IOWR_ALTERA_AVALON_JTAG_UART_CONTROL(base, sp->irq_enable);
    1588:	e0bffb17 	ldw	r2,-20(fp)
    158c:	10800104 	addi	r2,r2,4
    1590:	1007883a 	mov	r3,r2
    1594:	e0bffa17 	ldw	r2,-24(fp)
    1598:	10800817 	ldw	r2,32(r2)
    159c:	18800035 	stwio	r2,0(r3)
        
        /* Dummy read to ensure IRQ is cleared prior to ISR completion */
        IORD_ALTERA_AVALON_JTAG_UART_CONTROL(base);
    15a0:	e0bffb17 	ldw	r2,-20(fp)
    15a4:	10800104 	addi	r2,r2,4
    15a8:	10800037 	ldwio	r2,0(r2)
      }
    }

    if (control & ALTERA_AVALON_JTAG_UART_CONTROL_WI_MSK)
    15ac:	e0bffc17 	ldw	r2,-16(fp)
    15b0:	1080800c 	andi	r2,r2,512
    15b4:	103fbe26 	beq	r2,zero,14b0 <__alt_mem_VGA_Subsystem_Char_Buf_Subsystem_Onchip_SRAM+0xf70014b0>
    {
      /* process a write irq */
      unsigned int space = (control & ALTERA_AVALON_JTAG_UART_CONTROL_WSPACE_MSK) >> ALTERA_AVALON_JTAG_UART_CONTROL_WSPACE_OFST;
    15b8:	e0bffc17 	ldw	r2,-16(fp)
    15bc:	1004d43a 	srli	r2,r2,16
    15c0:	e0bff915 	stw	r2,-28(fp)

      while (space > 0 && sp->tx_out != sp->tx_in)
    15c4:	00001406 	br	1618 <altera_avalon_jtag_uart_irq+0x190>
      {
        IOWR_ALTERA_AVALON_JTAG_UART_DATA(base, sp->tx_buf[sp->tx_out]);
    15c8:	e0bffb17 	ldw	r2,-20(fp)
    15cc:	e0fffa17 	ldw	r3,-24(fp)
    15d0:	18c00d17 	ldw	r3,52(r3)
    15d4:	e13ffa17 	ldw	r4,-24(fp)
    15d8:	20c7883a 	add	r3,r4,r3
    15dc:	18c20e04 	addi	r3,r3,2104
    15e0:	18c00003 	ldbu	r3,0(r3)
    15e4:	18c03fcc 	andi	r3,r3,255
    15e8:	18c0201c 	xori	r3,r3,128
    15ec:	18ffe004 	addi	r3,r3,-128
    15f0:	10c00035 	stwio	r3,0(r2)

        sp->tx_out = (sp->tx_out + 1) % ALTERA_AVALON_JTAG_UART_BUF_LEN;
    15f4:	e0bffa17 	ldw	r2,-24(fp)
    15f8:	10800d17 	ldw	r2,52(r2)
    15fc:	10800044 	addi	r2,r2,1
    1600:	10c1ffcc 	andi	r3,r2,2047
    1604:	e0bffa17 	ldw	r2,-24(fp)
    1608:	10c00d15 	stw	r3,52(r2)

        /* Post an event to notify jtag_uart_write that a character has been written */
        ALT_FLAG_POST (sp->events, ALT_JTAG_UART_WRITE_RDY, OS_FLAG_SET);

        space--;
    160c:	e0bff917 	ldw	r2,-28(fp)
    1610:	10bfffc4 	addi	r2,r2,-1
    1614:	e0bff915 	stw	r2,-28(fp)
    if (control & ALTERA_AVALON_JTAG_UART_CONTROL_WI_MSK)
    {
      /* process a write irq */
      unsigned int space = (control & ALTERA_AVALON_JTAG_UART_CONTROL_WSPACE_MSK) >> ALTERA_AVALON_JTAG_UART_CONTROL_WSPACE_OFST;

      while (space > 0 && sp->tx_out != sp->tx_in)
    1618:	e0bff917 	ldw	r2,-28(fp)
    161c:	10000526 	beq	r2,zero,1634 <altera_avalon_jtag_uart_irq+0x1ac>
    1620:	e0bffa17 	ldw	r2,-24(fp)
    1624:	10c00d17 	ldw	r3,52(r2)
    1628:	e0bffa17 	ldw	r2,-24(fp)
    162c:	10800c17 	ldw	r2,48(r2)
    1630:	18bfe51e 	bne	r3,r2,15c8 <__alt_mem_VGA_Subsystem_Char_Buf_Subsystem_Onchip_SRAM+0xf70015c8>
        ALT_FLAG_POST (sp->events, ALT_JTAG_UART_WRITE_RDY, OS_FLAG_SET);

        space--;
      }

      if (space > 0)
    1634:	e0bff917 	ldw	r2,-28(fp)
    1638:	103f9d26 	beq	r2,zero,14b0 <__alt_mem_VGA_Subsystem_Char_Buf_Subsystem_Onchip_SRAM+0xf70014b0>
      {
        /* If we don't have any more data available then turn off the TX interrupt */
        sp->irq_enable &= ~ALTERA_AVALON_JTAG_UART_CONTROL_WE_MSK;
    163c:	e0bffa17 	ldw	r2,-24(fp)
    1640:	10c00817 	ldw	r3,32(r2)
    1644:	00bfff44 	movi	r2,-3
    1648:	1886703a 	and	r3,r3,r2
    164c:	e0bffa17 	ldw	r2,-24(fp)
    1650:	10c00815 	stw	r3,32(r2)
        IOWR_ALTERA_AVALON_JTAG_UART_CONTROL(sp->base, sp->irq_enable);
    1654:	e0bffa17 	ldw	r2,-24(fp)
    1658:	10800017 	ldw	r2,0(r2)
    165c:	10800104 	addi	r2,r2,4
    1660:	1007883a 	mov	r3,r2
    1664:	e0bffa17 	ldw	r2,-24(fp)
    1668:	10800817 	ldw	r2,32(r2)
    166c:	18800035 	stwio	r2,0(r3)
        
        /* Dummy read to ensure IRQ is cleared prior to ISR completion */
        IORD_ALTERA_AVALON_JTAG_UART_CONTROL(base);
    1670:	e0bffb17 	ldw	r2,-20(fp)
    1674:	10800104 	addi	r2,r2,4
    1678:	10800037 	ldwio	r2,0(r2)
      }
    }
  }
    167c:	003f8c06 	br	14b0 <__alt_mem_VGA_Subsystem_Char_Buf_Subsystem_Onchip_SRAM+0xf70014b0>
  {
    unsigned int control = IORD_ALTERA_AVALON_JTAG_UART_CONTROL(base);

    /* Return once nothing more to do */
    if ((control & (ALTERA_AVALON_JTAG_UART_CONTROL_RI_MSK | ALTERA_AVALON_JTAG_UART_CONTROL_WI_MSK)) == 0)
      break;
    1680:	0001883a 	nop
        /* Dummy read to ensure IRQ is cleared prior to ISR completion */
        IORD_ALTERA_AVALON_JTAG_UART_CONTROL(base);
      }
    }
  }
}
    1684:	0001883a 	nop
    1688:	e037883a 	mov	sp,fp
    168c:	df000017 	ldw	fp,0(sp)
    1690:	dec00104 	addi	sp,sp,4
    1694:	f800283a 	ret

00001698 <altera_avalon_jtag_uart_timeout>:
 * Timeout routine is called every second
 */

static alt_u32 
altera_avalon_jtag_uart_timeout(void* context) 
{
    1698:	defff804 	addi	sp,sp,-32
    169c:	df000715 	stw	fp,28(sp)
    16a0:	df000704 	addi	fp,sp,28
    16a4:	e13ffb15 	stw	r4,-20(fp)
  altera_avalon_jtag_uart_state* sp = (altera_avalon_jtag_uart_state *) context;
    16a8:	e0bffb17 	ldw	r2,-20(fp)
    16ac:	e0bff915 	stw	r2,-28(fp)

  unsigned int control = IORD_ALTERA_AVALON_JTAG_UART_CONTROL(sp->base);
    16b0:	e0bff917 	ldw	r2,-28(fp)
    16b4:	10800017 	ldw	r2,0(r2)
    16b8:	10800104 	addi	r2,r2,4
    16bc:	10800037 	ldwio	r2,0(r2)
    16c0:	e0bffa15 	stw	r2,-24(fp)

  if (control & ALTERA_AVALON_JTAG_UART_CONTROL_AC_MSK)
    16c4:	e0bffa17 	ldw	r2,-24(fp)
    16c8:	1081000c 	andi	r2,r2,1024
    16cc:	10000b26 	beq	r2,zero,16fc <altera_avalon_jtag_uart_timeout+0x64>
  {
    IOWR_ALTERA_AVALON_JTAG_UART_CONTROL(sp->base, sp->irq_enable | ALTERA_AVALON_JTAG_UART_CONTROL_AC_MSK);
    16d0:	e0bff917 	ldw	r2,-28(fp)
    16d4:	10800017 	ldw	r2,0(r2)
    16d8:	10800104 	addi	r2,r2,4
    16dc:	1007883a 	mov	r3,r2
    16e0:	e0bff917 	ldw	r2,-28(fp)
    16e4:	10800817 	ldw	r2,32(r2)
    16e8:	10810014 	ori	r2,r2,1024
    16ec:	18800035 	stwio	r2,0(r3)
    sp->host_inactive = 0;
    16f0:	e0bff917 	ldw	r2,-28(fp)
    16f4:	10000915 	stw	zero,36(r2)
    16f8:	00000a06 	br	1724 <altera_avalon_jtag_uart_timeout+0x8c>
  }
  else if (sp->host_inactive < INT_MAX - 2) {
    16fc:	e0bff917 	ldw	r2,-28(fp)
    1700:	10c00917 	ldw	r3,36(r2)
    1704:	00a00034 	movhi	r2,32768
    1708:	10bfff04 	addi	r2,r2,-4
    170c:	10c00536 	bltu	r2,r3,1724 <altera_avalon_jtag_uart_timeout+0x8c>
    sp->host_inactive++;
    1710:	e0bff917 	ldw	r2,-28(fp)
    1714:	10800917 	ldw	r2,36(r2)
    1718:	10c00044 	addi	r3,r2,1
    171c:	e0bff917 	ldw	r2,-28(fp)
    1720:	10c00915 	stw	r3,36(r2)
    1724:	00800034 	movhi	r2,0
    1728:	109de404 	addi	r2,r2,30608
    172c:	10800017 	ldw	r2,0(r2)
      ALT_FLAG_POST (sp->events, ALT_JTAG_UART_TIMEOUT, OS_FLAG_SET);
    }
  }

  return alt_ticks_per_second();
}
    1730:	e037883a 	mov	sp,fp
    1734:	df000017 	ldw	fp,0(sp)
    1738:	dec00104 	addi	sp,sp,4
    173c:	f800283a 	ret

00001740 <altera_avalon_jtag_uart_close>:
 * The close routine is not implemented for the small driver; instead it will
 * map to null. This is because the small driver simply waits while characters
 * are transmitted; there is no interrupt-serviced buffer to empty 
 */
int altera_avalon_jtag_uart_close(altera_avalon_jtag_uart_state* sp, int flags)
{
    1740:	defffd04 	addi	sp,sp,-12
    1744:	df000215 	stw	fp,8(sp)
    1748:	df000204 	addi	fp,sp,8
    174c:	e13ffe15 	stw	r4,-8(fp)
    1750:	e17fff15 	stw	r5,-4(fp)
  /* 
   * Wait for all transmit data to be emptied by the JTAG UART ISR, or
   * for a host-inactivity timeout, in which case transmit data will be lost
   */
  while ( (sp->tx_out != sp->tx_in) && (sp->host_inactive < sp->timeout) ) {
    1754:	00000506 	br	176c <altera_avalon_jtag_uart_close+0x2c>
    if (flags & O_NONBLOCK) {
    1758:	e0bfff17 	ldw	r2,-4(fp)
    175c:	1090000c 	andi	r2,r2,16384
    1760:	10000226 	beq	r2,zero,176c <altera_avalon_jtag_uart_close+0x2c>
      return -EWOULDBLOCK; 
    1764:	00bffd44 	movi	r2,-11
    1768:	00000b06 	br	1798 <altera_avalon_jtag_uart_close+0x58>
{
  /* 
   * Wait for all transmit data to be emptied by the JTAG UART ISR, or
   * for a host-inactivity timeout, in which case transmit data will be lost
   */
  while ( (sp->tx_out != sp->tx_in) && (sp->host_inactive < sp->timeout) ) {
    176c:	e0bffe17 	ldw	r2,-8(fp)
    1770:	10c00d17 	ldw	r3,52(r2)
    1774:	e0bffe17 	ldw	r2,-8(fp)
    1778:	10800c17 	ldw	r2,48(r2)
    177c:	18800526 	beq	r3,r2,1794 <altera_avalon_jtag_uart_close+0x54>
    1780:	e0bffe17 	ldw	r2,-8(fp)
    1784:	10c00917 	ldw	r3,36(r2)
    1788:	e0bffe17 	ldw	r2,-8(fp)
    178c:	10800117 	ldw	r2,4(r2)
    1790:	18bff136 	bltu	r3,r2,1758 <__alt_mem_VGA_Subsystem_Char_Buf_Subsystem_Onchip_SRAM+0xf7001758>
    if (flags & O_NONBLOCK) {
      return -EWOULDBLOCK; 
    }
  }

  return 0;
    1794:	0005883a 	mov	r2,zero
}
    1798:	e037883a 	mov	sp,fp
    179c:	df000017 	ldw	fp,0(sp)
    17a0:	dec00104 	addi	sp,sp,4
    17a4:	f800283a 	ret

000017a8 <altera_avalon_jtag_uart_ioctl>:
/* ----------------------------------------------------------- */

int 
altera_avalon_jtag_uart_ioctl(altera_avalon_jtag_uart_state* sp, int req,
  void* arg)
{
    17a8:	defffa04 	addi	sp,sp,-24
    17ac:	df000515 	stw	fp,20(sp)
    17b0:	df000504 	addi	fp,sp,20
    17b4:	e13ffd15 	stw	r4,-12(fp)
    17b8:	e17ffe15 	stw	r5,-8(fp)
    17bc:	e1bfff15 	stw	r6,-4(fp)
  int rc = -ENOTTY;
    17c0:	00bff9c4 	movi	r2,-25
    17c4:	e0bffb15 	stw	r2,-20(fp)

  switch (req)
    17c8:	e0bffe17 	ldw	r2,-8(fp)
    17cc:	10da8060 	cmpeqi	r3,r2,27137
    17d0:	1800031e 	bne	r3,zero,17e0 <altera_avalon_jtag_uart_ioctl+0x38>
    17d4:	109a80a0 	cmpeqi	r2,r2,27138
    17d8:	1000181e 	bne	r2,zero,183c <altera_avalon_jtag_uart_ioctl+0x94>
      rc = 0;
    }
    break;

  default:
    break;
    17dc:	00002906 	br	1884 <altera_avalon_jtag_uart_ioctl+0xdc>

  switch (req)
  {
  case TIOCSTIMEOUT:
    /* Set the time to wait until assuming host is not connected */
    if (sp->timeout != INT_MAX)
    17e0:	e0bffd17 	ldw	r2,-12(fp)
    17e4:	10c00117 	ldw	r3,4(r2)
    17e8:	00a00034 	movhi	r2,32768
    17ec:	10bfffc4 	addi	r2,r2,-1
    17f0:	18802126 	beq	r3,r2,1878 <altera_avalon_jtag_uart_ioctl+0xd0>
    {
      int timeout = *((int *)arg);
    17f4:	e0bfff17 	ldw	r2,-4(fp)
    17f8:	10800017 	ldw	r2,0(r2)
    17fc:	e0bffc15 	stw	r2,-16(fp)
      sp->timeout = (timeout >= 2 && timeout < INT_MAX) ? timeout : INT_MAX - 1;
    1800:	e0bffc17 	ldw	r2,-16(fp)
    1804:	10800090 	cmplti	r2,r2,2
    1808:	1000061e 	bne	r2,zero,1824 <altera_avalon_jtag_uart_ioctl+0x7c>
    180c:	e0fffc17 	ldw	r3,-16(fp)
    1810:	00a00034 	movhi	r2,32768
    1814:	10bfffc4 	addi	r2,r2,-1
    1818:	18800226 	beq	r3,r2,1824 <altera_avalon_jtag_uart_ioctl+0x7c>
    181c:	e0bffc17 	ldw	r2,-16(fp)
    1820:	00000206 	br	182c <altera_avalon_jtag_uart_ioctl+0x84>
    1824:	00a00034 	movhi	r2,32768
    1828:	10bfff84 	addi	r2,r2,-2
    182c:	e0fffd17 	ldw	r3,-12(fp)
    1830:	18800115 	stw	r2,4(r3)
      rc = 0;
    1834:	e03ffb15 	stw	zero,-20(fp)
    }
    break;
    1838:	00000f06 	br	1878 <altera_avalon_jtag_uart_ioctl+0xd0>

  case TIOCGCONNECTED:
    /* Find out whether host is connected */
    if (sp->timeout != INT_MAX)
    183c:	e0bffd17 	ldw	r2,-12(fp)
    1840:	10c00117 	ldw	r3,4(r2)
    1844:	00a00034 	movhi	r2,32768
    1848:	10bfffc4 	addi	r2,r2,-1
    184c:	18800c26 	beq	r3,r2,1880 <altera_avalon_jtag_uart_ioctl+0xd8>
    {
      *((int *)arg) = (sp->host_inactive < sp->timeout) ? 1 : 0;
    1850:	e0bffd17 	ldw	r2,-12(fp)
    1854:	10c00917 	ldw	r3,36(r2)
    1858:	e0bffd17 	ldw	r2,-12(fp)
    185c:	10800117 	ldw	r2,4(r2)
    1860:	1885803a 	cmpltu	r2,r3,r2
    1864:	10c03fcc 	andi	r3,r2,255
    1868:	e0bfff17 	ldw	r2,-4(fp)
    186c:	10c00015 	stw	r3,0(r2)
      rc = 0;
    1870:	e03ffb15 	stw	zero,-20(fp)
    }
    break;
    1874:	00000206 	br	1880 <altera_avalon_jtag_uart_ioctl+0xd8>
    {
      int timeout = *((int *)arg);
      sp->timeout = (timeout >= 2 && timeout < INT_MAX) ? timeout : INT_MAX - 1;
      rc = 0;
    }
    break;
    1878:	0001883a 	nop
    187c:	00000106 	br	1884 <altera_avalon_jtag_uart_ioctl+0xdc>
    if (sp->timeout != INT_MAX)
    {
      *((int *)arg) = (sp->host_inactive < sp->timeout) ? 1 : 0;
      rc = 0;
    }
    break;
    1880:	0001883a 	nop

  default:
    break;
  }

  return rc;
    1884:	e0bffb17 	ldw	r2,-20(fp)
}
    1888:	e037883a 	mov	sp,fp
    188c:	df000017 	ldw	fp,0(sp)
    1890:	dec00104 	addi	sp,sp,4
    1894:	f800283a 	ret

00001898 <altera_avalon_jtag_uart_read>:
/* ----------------------------------------------------------- */

int 
altera_avalon_jtag_uart_read(altera_avalon_jtag_uart_state* sp, 
  char * buffer, int space, int flags)
{
    1898:	defff304 	addi	sp,sp,-52
    189c:	dfc00c15 	stw	ra,48(sp)
    18a0:	df000b15 	stw	fp,44(sp)
    18a4:	df000b04 	addi	fp,sp,44
    18a8:	e13ffc15 	stw	r4,-16(fp)
    18ac:	e17ffd15 	stw	r5,-12(fp)
    18b0:	e1bffe15 	stw	r6,-8(fp)
    18b4:	e1ffff15 	stw	r7,-4(fp)
  char * ptr = buffer;
    18b8:	e0bffd17 	ldw	r2,-12(fp)
    18bc:	e0bff515 	stw	r2,-44(fp)
   * When running in a multi threaded environment, obtain the "read_lock"
   * semaphore. This ensures that reading from the device is thread-safe.
   */
  ALT_SEM_PEND (sp->read_lock, 0);

  while (space > 0)
    18c0:	00004706 	br	19e0 <altera_avalon_jtag_uart_read+0x148>
    unsigned int in, out;

    /* Read as much data as possible */
    do
    {
      in  = sp->rx_in;
    18c4:	e0bffc17 	ldw	r2,-16(fp)
    18c8:	10800a17 	ldw	r2,40(r2)
    18cc:	e0bff715 	stw	r2,-36(fp)
      out = sp->rx_out;
    18d0:	e0bffc17 	ldw	r2,-16(fp)
    18d4:	10800b17 	ldw	r2,44(r2)
    18d8:	e0bff815 	stw	r2,-32(fp)

      if (in >= out)
    18dc:	e0fff717 	ldw	r3,-36(fp)
    18e0:	e0bff817 	ldw	r2,-32(fp)
    18e4:	18800536 	bltu	r3,r2,18fc <altera_avalon_jtag_uart_read+0x64>
        n = in - out;
    18e8:	e0fff717 	ldw	r3,-36(fp)
    18ec:	e0bff817 	ldw	r2,-32(fp)
    18f0:	1885c83a 	sub	r2,r3,r2
    18f4:	e0bff615 	stw	r2,-40(fp)
    18f8:	00000406 	br	190c <altera_avalon_jtag_uart_read+0x74>
      else
        n = ALTERA_AVALON_JTAG_UART_BUF_LEN - out;
    18fc:	00c20004 	movi	r3,2048
    1900:	e0bff817 	ldw	r2,-32(fp)
    1904:	1885c83a 	sub	r2,r3,r2
    1908:	e0bff615 	stw	r2,-40(fp)

      if (n == 0)
    190c:	e0bff617 	ldw	r2,-40(fp)
    1910:	10001e26 	beq	r2,zero,198c <altera_avalon_jtag_uart_read+0xf4>
        break; /* No more data available */

      if (n > space)
    1914:	e0fffe17 	ldw	r3,-8(fp)
    1918:	e0bff617 	ldw	r2,-40(fp)
    191c:	1880022e 	bgeu	r3,r2,1928 <altera_avalon_jtag_uart_read+0x90>
        n = space;
    1920:	e0bffe17 	ldw	r2,-8(fp)
    1924:	e0bff615 	stw	r2,-40(fp)

      memcpy(ptr, sp->rx_buf + out, n);
    1928:	e0bffc17 	ldw	r2,-16(fp)
    192c:	10c00e04 	addi	r3,r2,56
    1930:	e0bff817 	ldw	r2,-32(fp)
    1934:	1885883a 	add	r2,r3,r2
    1938:	e1bff617 	ldw	r6,-40(fp)
    193c:	100b883a 	mov	r5,r2
    1940:	e13ff517 	ldw	r4,-44(fp)
    1944:	0000a740 	call	a74 <memcpy>
      ptr   += n;
    1948:	e0fff517 	ldw	r3,-44(fp)
    194c:	e0bff617 	ldw	r2,-40(fp)
    1950:	1885883a 	add	r2,r3,r2
    1954:	e0bff515 	stw	r2,-44(fp)
      space -= n;
    1958:	e0fffe17 	ldw	r3,-8(fp)
    195c:	e0bff617 	ldw	r2,-40(fp)
    1960:	1885c83a 	sub	r2,r3,r2
    1964:	e0bffe15 	stw	r2,-8(fp)

      sp->rx_out = (out + n) % ALTERA_AVALON_JTAG_UART_BUF_LEN;
    1968:	e0fff817 	ldw	r3,-32(fp)
    196c:	e0bff617 	ldw	r2,-40(fp)
    1970:	1885883a 	add	r2,r3,r2
    1974:	10c1ffcc 	andi	r3,r2,2047
    1978:	e0bffc17 	ldw	r2,-16(fp)
    197c:	10c00b15 	stw	r3,44(r2)
    }
    while (space > 0);
    1980:	e0bffe17 	ldw	r2,-8(fp)
    1984:	00bfcf16 	blt	zero,r2,18c4 <__alt_mem_VGA_Subsystem_Char_Buf_Subsystem_Onchip_SRAM+0xf70018c4>
    1988:	00000106 	br	1990 <altera_avalon_jtag_uart_read+0xf8>
        n = in - out;
      else
        n = ALTERA_AVALON_JTAG_UART_BUF_LEN - out;

      if (n == 0)
        break; /* No more data available */
    198c:	0001883a 	nop
      sp->rx_out = (out + n) % ALTERA_AVALON_JTAG_UART_BUF_LEN;
    }
    while (space > 0);

    /* If we read any data then return it */
    if (ptr != buffer)
    1990:	e0fff517 	ldw	r3,-44(fp)
    1994:	e0bffd17 	ldw	r2,-12(fp)
    1998:	1880141e 	bne	r3,r2,19ec <altera_avalon_jtag_uart_read+0x154>
      break;

    /* If in non-blocking mode then return error */
    if (flags & O_NONBLOCK)
    199c:	e0bfff17 	ldw	r2,-4(fp)
    19a0:	1090000c 	andi	r2,r2,16384
    19a4:	1000131e 	bne	r2,zero,19f4 <altera_avalon_jtag_uart_read+0x15c>
      while (in == sp->rx_in && sp->host_inactive < sp->timeout)
        ;
    }
#else
    /* No OS: Always spin */
    while (in == sp->rx_in && sp->host_inactive < sp->timeout)
    19a8:	0001883a 	nop
    19ac:	e0bffc17 	ldw	r2,-16(fp)
    19b0:	10c00a17 	ldw	r3,40(r2)
    19b4:	e0bff717 	ldw	r2,-36(fp)
    19b8:	1880051e 	bne	r3,r2,19d0 <altera_avalon_jtag_uart_read+0x138>
    19bc:	e0bffc17 	ldw	r2,-16(fp)
    19c0:	10c00917 	ldw	r3,36(r2)
    19c4:	e0bffc17 	ldw	r2,-16(fp)
    19c8:	10800117 	ldw	r2,4(r2)
    19cc:	18bff736 	bltu	r3,r2,19ac <__alt_mem_VGA_Subsystem_Char_Buf_Subsystem_Onchip_SRAM+0xf70019ac>
      ;
#endif /* __ucosii__ */

    if (in == sp->rx_in)
    19d0:	e0bffc17 	ldw	r2,-16(fp)
    19d4:	10c00a17 	ldw	r3,40(r2)
    19d8:	e0bff717 	ldw	r2,-36(fp)
    19dc:	18800726 	beq	r3,r2,19fc <altera_avalon_jtag_uart_read+0x164>
   * When running in a multi threaded environment, obtain the "read_lock"
   * semaphore. This ensures that reading from the device is thread-safe.
   */
  ALT_SEM_PEND (sp->read_lock, 0);

  while (space > 0)
    19e0:	e0bffe17 	ldw	r2,-8(fp)
    19e4:	00bfb716 	blt	zero,r2,18c4 <__alt_mem_VGA_Subsystem_Char_Buf_Subsystem_Onchip_SRAM+0xf70018c4>
    19e8:	00000506 	br	1a00 <altera_avalon_jtag_uart_read+0x168>
    }
    while (space > 0);

    /* If we read any data then return it */
    if (ptr != buffer)
      break;
    19ec:	0001883a 	nop
    19f0:	00000306 	br	1a00 <altera_avalon_jtag_uart_read+0x168>

    /* If in non-blocking mode then return error */
    if (flags & O_NONBLOCK)
      break;
    19f4:	0001883a 	nop
    19f8:	00000106 	br	1a00 <altera_avalon_jtag_uart_read+0x168>
    while (in == sp->rx_in && sp->host_inactive < sp->timeout)
      ;
#endif /* __ucosii__ */

    if (in == sp->rx_in)
      break;
    19fc:	0001883a 	nop
   * semaphore so that other threads can access the buffer.
   */

  ALT_SEM_POST (sp->read_lock);

  if (ptr != buffer)
    1a00:	e0fff517 	ldw	r3,-44(fp)
    1a04:	e0bffd17 	ldw	r2,-12(fp)
    1a08:	18801826 	beq	r3,r2,1a6c <altera_avalon_jtag_uart_read+0x1d4>
static ALT_INLINE alt_irq_context ALT_ALWAYS_INLINE 
       alt_irq_disable_all (void)
{
  alt_irq_context context;

  NIOS2_READ_STATUS (context);
    1a0c:	0005303a 	rdctl	r2,status
    1a10:	e0bffb15 	stw	r2,-20(fp)

  NIOS2_WRITE_STATUS (context & ~NIOS2_STATUS_PIE_MSK);
    1a14:	e0fffb17 	ldw	r3,-20(fp)
    1a18:	00bfff84 	movi	r2,-2
    1a1c:	1884703a 	and	r2,r3,r2
    1a20:	1001703a 	wrctl	status,r2
  
  return context;
    1a24:	e0bffb17 	ldw	r2,-20(fp)
  {
    /* If we read any data then there is space in the buffer so enable interrupts */
    context = alt_irq_disable_all();
    1a28:	e0bffa15 	stw	r2,-24(fp)
    sp->irq_enable |= ALTERA_AVALON_JTAG_UART_CONTROL_RE_MSK;
    1a2c:	e0bffc17 	ldw	r2,-16(fp)
    1a30:	10800817 	ldw	r2,32(r2)
    1a34:	10c00054 	ori	r3,r2,1
    1a38:	e0bffc17 	ldw	r2,-16(fp)
    1a3c:	10c00815 	stw	r3,32(r2)
    IOWR_ALTERA_AVALON_JTAG_UART_CONTROL(sp->base, sp->irq_enable);
    1a40:	e0bffc17 	ldw	r2,-16(fp)
    1a44:	10800017 	ldw	r2,0(r2)
    1a48:	10800104 	addi	r2,r2,4
    1a4c:	1007883a 	mov	r3,r2
    1a50:	e0bffc17 	ldw	r2,-16(fp)
    1a54:	10800817 	ldw	r2,32(r2)
    1a58:	18800035 	stwio	r2,0(r3)
    1a5c:	e0bffa17 	ldw	r2,-24(fp)
    1a60:	e0bff915 	stw	r2,-28(fp)
  status &= ~NIOS2_STATUS_PIE_MSK;
  status |= (context & NIOS2_STATUS_PIE_MSK);
  
  NIOS2_WRITE_STATUS (status);
#else
  NIOS2_WRITE_STATUS (context);
    1a64:	e0bff917 	ldw	r2,-28(fp)
    1a68:	1001703a 	wrctl	status,r2
    alt_irq_enable_all(context);
  }

  if (ptr != buffer)
    1a6c:	e0fff517 	ldw	r3,-44(fp)
    1a70:	e0bffd17 	ldw	r2,-12(fp)
    1a74:	18800426 	beq	r3,r2,1a88 <altera_avalon_jtag_uart_read+0x1f0>
    return ptr - buffer;
    1a78:	e0fff517 	ldw	r3,-44(fp)
    1a7c:	e0bffd17 	ldw	r2,-12(fp)
    1a80:	1885c83a 	sub	r2,r3,r2
    1a84:	00000606 	br	1aa0 <altera_avalon_jtag_uart_read+0x208>
  else if (flags & O_NONBLOCK)
    1a88:	e0bfff17 	ldw	r2,-4(fp)
    1a8c:	1090000c 	andi	r2,r2,16384
    1a90:	10000226 	beq	r2,zero,1a9c <altera_avalon_jtag_uart_read+0x204>
    return -EWOULDBLOCK;
    1a94:	00bffd44 	movi	r2,-11
    1a98:	00000106 	br	1aa0 <altera_avalon_jtag_uart_read+0x208>
  else
    return -EIO;
    1a9c:	00bffec4 	movi	r2,-5
}
    1aa0:	e037883a 	mov	sp,fp
    1aa4:	dfc00117 	ldw	ra,4(sp)
    1aa8:	df000017 	ldw	fp,0(sp)
    1aac:	dec00204 	addi	sp,sp,8
    1ab0:	f800283a 	ret

00001ab4 <altera_avalon_jtag_uart_write>:
/* ----------------------------------------------------------- */

int 
altera_avalon_jtag_uart_write(altera_avalon_jtag_uart_state* sp, 
  const char * ptr, int count, int flags)
{
    1ab4:	defff304 	addi	sp,sp,-52
    1ab8:	dfc00c15 	stw	ra,48(sp)
    1abc:	df000b15 	stw	fp,44(sp)
    1ac0:	df000b04 	addi	fp,sp,44
    1ac4:	e13ffc15 	stw	r4,-16(fp)
    1ac8:	e17ffd15 	stw	r5,-12(fp)
    1acc:	e1bffe15 	stw	r6,-8(fp)
    1ad0:	e1ffff15 	stw	r7,-4(fp)
  /* Remove warning at optimisation level 03 by seting out to 0 */
  unsigned int in, out=0;
    1ad4:	e03ff515 	stw	zero,-44(fp)
  unsigned int n;
  alt_irq_context context;

  const char * start = ptr;
    1ad8:	e0bffd17 	ldw	r2,-12(fp)
    1adc:	e0bff715 	stw	r2,-36(fp)
  ALT_SEM_PEND (sp->write_lock, 0);

  do
  {
    /* Copy as much as we can into the transmit buffer */
    while (count > 0)
    1ae0:	00003706 	br	1bc0 <altera_avalon_jtag_uart_write+0x10c>
    {
      /* We need a stable value of the out pointer to calculate the space available */
      in  = sp->tx_in;
    1ae4:	e0bffc17 	ldw	r2,-16(fp)
    1ae8:	10800c17 	ldw	r2,48(r2)
    1aec:	e0bff915 	stw	r2,-28(fp)
      out = sp->tx_out;
    1af0:	e0bffc17 	ldw	r2,-16(fp)
    1af4:	10800d17 	ldw	r2,52(r2)
    1af8:	e0bff515 	stw	r2,-44(fp)

      if (in < out)
    1afc:	e0fff917 	ldw	r3,-28(fp)
    1b00:	e0bff517 	ldw	r2,-44(fp)
    1b04:	1880062e 	bgeu	r3,r2,1b20 <altera_avalon_jtag_uart_write+0x6c>
        n = out - 1 - in;
    1b08:	e0fff517 	ldw	r3,-44(fp)
    1b0c:	e0bff917 	ldw	r2,-28(fp)
    1b10:	1885c83a 	sub	r2,r3,r2
    1b14:	10bfffc4 	addi	r2,r2,-1
    1b18:	e0bff615 	stw	r2,-40(fp)
    1b1c:	00000b06 	br	1b4c <altera_avalon_jtag_uart_write+0x98>
      else if (out > 0)
    1b20:	e0bff517 	ldw	r2,-44(fp)
    1b24:	10000526 	beq	r2,zero,1b3c <altera_avalon_jtag_uart_write+0x88>
        n = ALTERA_AVALON_JTAG_UART_BUF_LEN - in;
    1b28:	00c20004 	movi	r3,2048
    1b2c:	e0bff917 	ldw	r2,-28(fp)
    1b30:	1885c83a 	sub	r2,r3,r2
    1b34:	e0bff615 	stw	r2,-40(fp)
    1b38:	00000406 	br	1b4c <altera_avalon_jtag_uart_write+0x98>
      else
        n = ALTERA_AVALON_JTAG_UART_BUF_LEN - 1 - in;
    1b3c:	00c1ffc4 	movi	r3,2047
    1b40:	e0bff917 	ldw	r2,-28(fp)
    1b44:	1885c83a 	sub	r2,r3,r2
    1b48:	e0bff615 	stw	r2,-40(fp)

      if (n == 0)
    1b4c:	e0bff617 	ldw	r2,-40(fp)
    1b50:	10001e26 	beq	r2,zero,1bcc <altera_avalon_jtag_uart_write+0x118>
        break;

      if (n > count)
    1b54:	e0fffe17 	ldw	r3,-8(fp)
    1b58:	e0bff617 	ldw	r2,-40(fp)
    1b5c:	1880022e 	bgeu	r3,r2,1b68 <altera_avalon_jtag_uart_write+0xb4>
        n = count;
    1b60:	e0bffe17 	ldw	r2,-8(fp)
    1b64:	e0bff615 	stw	r2,-40(fp)

      memcpy(sp->tx_buf + in, ptr, n);
    1b68:	e0bffc17 	ldw	r2,-16(fp)
    1b6c:	10c20e04 	addi	r3,r2,2104
    1b70:	e0bff917 	ldw	r2,-28(fp)
    1b74:	1885883a 	add	r2,r3,r2
    1b78:	e1bff617 	ldw	r6,-40(fp)
    1b7c:	e17ffd17 	ldw	r5,-12(fp)
    1b80:	1009883a 	mov	r4,r2
    1b84:	0000a740 	call	a74 <memcpy>
      ptr   += n;
    1b88:	e0fffd17 	ldw	r3,-12(fp)
    1b8c:	e0bff617 	ldw	r2,-40(fp)
    1b90:	1885883a 	add	r2,r3,r2
    1b94:	e0bffd15 	stw	r2,-12(fp)
      count -= n;
    1b98:	e0fffe17 	ldw	r3,-8(fp)
    1b9c:	e0bff617 	ldw	r2,-40(fp)
    1ba0:	1885c83a 	sub	r2,r3,r2
    1ba4:	e0bffe15 	stw	r2,-8(fp)

      sp->tx_in = (in + n) % ALTERA_AVALON_JTAG_UART_BUF_LEN;
    1ba8:	e0fff917 	ldw	r3,-28(fp)
    1bac:	e0bff617 	ldw	r2,-40(fp)
    1bb0:	1885883a 	add	r2,r3,r2
    1bb4:	10c1ffcc 	andi	r3,r2,2047
    1bb8:	e0bffc17 	ldw	r2,-16(fp)
    1bbc:	10c00c15 	stw	r3,48(r2)
  ALT_SEM_PEND (sp->write_lock, 0);

  do
  {
    /* Copy as much as we can into the transmit buffer */
    while (count > 0)
    1bc0:	e0bffe17 	ldw	r2,-8(fp)
    1bc4:	00bfc716 	blt	zero,r2,1ae4 <__alt_mem_VGA_Subsystem_Char_Buf_Subsystem_Onchip_SRAM+0xf7001ae4>
    1bc8:	00000106 	br	1bd0 <altera_avalon_jtag_uart_write+0x11c>
        n = ALTERA_AVALON_JTAG_UART_BUF_LEN - in;
      else
        n = ALTERA_AVALON_JTAG_UART_BUF_LEN - 1 - in;

      if (n == 0)
        break;
    1bcc:	0001883a 	nop
static ALT_INLINE alt_irq_context ALT_ALWAYS_INLINE 
       alt_irq_disable_all (void)
{
  alt_irq_context context;

  NIOS2_READ_STATUS (context);
    1bd0:	0005303a 	rdctl	r2,status
    1bd4:	e0bffb15 	stw	r2,-20(fp)

  NIOS2_WRITE_STATUS (context & ~NIOS2_STATUS_PIE_MSK);
    1bd8:	e0fffb17 	ldw	r3,-20(fp)
    1bdc:	00bfff84 	movi	r2,-2
    1be0:	1884703a 	and	r2,r3,r2
    1be4:	1001703a 	wrctl	status,r2
  
  return context;
    1be8:	e0bffb17 	ldw	r2,-20(fp)
     * to enable interrupts if there is no space left in the FIFO
     *
     * For now kick the interrupt routine every time to make it transmit 
     * the data 
     */
    context = alt_irq_disable_all();
    1bec:	e0bffa15 	stw	r2,-24(fp)
    sp->irq_enable |= ALTERA_AVALON_JTAG_UART_CONTROL_WE_MSK;
    1bf0:	e0bffc17 	ldw	r2,-16(fp)
    1bf4:	10800817 	ldw	r2,32(r2)
    1bf8:	10c00094 	ori	r3,r2,2
    1bfc:	e0bffc17 	ldw	r2,-16(fp)
    1c00:	10c00815 	stw	r3,32(r2)
    IOWR_ALTERA_AVALON_JTAG_UART_CONTROL(sp->base, sp->irq_enable);
    1c04:	e0bffc17 	ldw	r2,-16(fp)
    1c08:	10800017 	ldw	r2,0(r2)
    1c0c:	10800104 	addi	r2,r2,4
    1c10:	1007883a 	mov	r3,r2
    1c14:	e0bffc17 	ldw	r2,-16(fp)
    1c18:	10800817 	ldw	r2,32(r2)
    1c1c:	18800035 	stwio	r2,0(r3)
    1c20:	e0bffa17 	ldw	r2,-24(fp)
    1c24:	e0bff815 	stw	r2,-32(fp)
  status &= ~NIOS2_STATUS_PIE_MSK;
  status |= (context & NIOS2_STATUS_PIE_MSK);
  
  NIOS2_WRITE_STATUS (status);
#else
  NIOS2_WRITE_STATUS (context);
    1c28:	e0bff817 	ldw	r2,-32(fp)
    1c2c:	1001703a 	wrctl	status,r2
    /* 
     * If there is any data left then either return now or block until 
     * some has been sent 
     */
    /* consider: test whether there is anything there while doing this and delay for at most 2s. */
    if (count > 0)
    1c30:	e0bffe17 	ldw	r2,-8(fp)
    1c34:	0080100e 	bge	zero,r2,1c78 <altera_avalon_jtag_uart_write+0x1c4>
    {
      if (flags & O_NONBLOCK)
    1c38:	e0bfff17 	ldw	r2,-4(fp)
    1c3c:	1090000c 	andi	r2,r2,16384
    1c40:	1000101e 	bne	r2,zero,1c84 <altera_avalon_jtag_uart_write+0x1d0>
      /*
       * No OS present: Always wait for data to be removed from buffer.  Once
       * the interrupt routine has removed some data then we will be able to
       * insert some more.
       */
      while (out == sp->tx_out && sp->host_inactive < sp->timeout)
    1c44:	0001883a 	nop
    1c48:	e0bffc17 	ldw	r2,-16(fp)
    1c4c:	10c00d17 	ldw	r3,52(r2)
    1c50:	e0bff517 	ldw	r2,-44(fp)
    1c54:	1880051e 	bne	r3,r2,1c6c <altera_avalon_jtag_uart_write+0x1b8>
    1c58:	e0bffc17 	ldw	r2,-16(fp)
    1c5c:	10c00917 	ldw	r3,36(r2)
    1c60:	e0bffc17 	ldw	r2,-16(fp)
    1c64:	10800117 	ldw	r2,4(r2)
    1c68:	18bff736 	bltu	r3,r2,1c48 <__alt_mem_VGA_Subsystem_Char_Buf_Subsystem_Onchip_SRAM+0xf7001c48>
        ;
#endif /* __ucosii__ */

      if  (sp->host_inactive)
    1c6c:	e0bffc17 	ldw	r2,-16(fp)
    1c70:	10800917 	ldw	r2,36(r2)
    1c74:	1000051e 	bne	r2,zero,1c8c <altera_avalon_jtag_uart_write+0x1d8>
         break;
    }
  }
  while (count > 0);
    1c78:	e0bffe17 	ldw	r2,-8(fp)
    1c7c:	00bfd016 	blt	zero,r2,1bc0 <__alt_mem_VGA_Subsystem_Char_Buf_Subsystem_Onchip_SRAM+0xf7001bc0>
    1c80:	00000306 	br	1c90 <altera_avalon_jtag_uart_write+0x1dc>
     */
    /* consider: test whether there is anything there while doing this and delay for at most 2s. */
    if (count > 0)
    {
      if (flags & O_NONBLOCK)
        break;
    1c84:	0001883a 	nop
    1c88:	00000106 	br	1c90 <altera_avalon_jtag_uart_write+0x1dc>
      while (out == sp->tx_out && sp->host_inactive < sp->timeout)
        ;
#endif /* __ucosii__ */

      if  (sp->host_inactive)
         break;
    1c8c:	0001883a 	nop
   * Now that access to the circular buffer is complete, release the write
   * semaphore so that other threads can access the buffer.
   */
  ALT_SEM_POST (sp->write_lock);

  if (ptr != start)
    1c90:	e0fffd17 	ldw	r3,-12(fp)
    1c94:	e0bff717 	ldw	r2,-36(fp)
    1c98:	18800426 	beq	r3,r2,1cac <altera_avalon_jtag_uart_write+0x1f8>
    return ptr - start;
    1c9c:	e0fffd17 	ldw	r3,-12(fp)
    1ca0:	e0bff717 	ldw	r2,-36(fp)
    1ca4:	1885c83a 	sub	r2,r3,r2
    1ca8:	00000606 	br	1cc4 <altera_avalon_jtag_uart_write+0x210>
  else if (flags & O_NONBLOCK)
    1cac:	e0bfff17 	ldw	r2,-4(fp)
    1cb0:	1090000c 	andi	r2,r2,16384
    1cb4:	10000226 	beq	r2,zero,1cc0 <altera_avalon_jtag_uart_write+0x20c>
    return -EWOULDBLOCK;
    1cb8:	00bffd44 	movi	r2,-11
    1cbc:	00000106 	br	1cc4 <altera_avalon_jtag_uart_write+0x210>
    sp->tx_out = sp->tx_in = 0;
    return ptr - start + count;
  }
#endif
  else
    return -EIO; /* Host not connected */
    1cc0:	00bffec4 	movi	r2,-5
}
    1cc4:	e037883a 	mov	sp,fp
    1cc8:	dfc00117 	ldw	ra,4(sp)
    1ccc:	df000017 	ldw	fp,0(sp)
    1cd0:	dec00204 	addi	sp,sp,8
    1cd4:	f800283a 	ret

00001cd8 <alt_avalon_timer_sc_irq>:
#ifdef ALT_ENHANCED_INTERRUPT_API_PRESENT
static void alt_avalon_timer_sc_irq (void* base)
#else
static void alt_avalon_timer_sc_irq (void* base, alt_u32 id)
#endif
{
    1cd8:	defff904 	addi	sp,sp,-28
    1cdc:	dfc00615 	stw	ra,24(sp)
    1ce0:	df000515 	stw	fp,20(sp)
    1ce4:	df000504 	addi	fp,sp,20
    1ce8:	e13ffe15 	stw	r4,-8(fp)
    1cec:	e17fff15 	stw	r5,-4(fp)
  alt_irq_context cpu_sr;
  
  /* clear the interrupt */
  IOWR_ALTERA_AVALON_TIMER_STATUS (base, 0);
    1cf0:	0007883a 	mov	r3,zero
    1cf4:	e0bffe17 	ldw	r2,-8(fp)
    1cf8:	10c00035 	stwio	r3,0(r2)
  /* 
   * Dummy read to ensure IRQ is negated before the ISR returns.
   * The control register is read because reading the status
   * register has side-effects per the register map documentation.
   */
  IORD_ALTERA_AVALON_TIMER_CONTROL (base);
    1cfc:	e0bffe17 	ldw	r2,-8(fp)
    1d00:	10800104 	addi	r2,r2,4
    1d04:	10800037 	ldwio	r2,0(r2)
static ALT_INLINE alt_irq_context ALT_ALWAYS_INLINE 
       alt_irq_disable_all (void)
{
  alt_irq_context context;

  NIOS2_READ_STATUS (context);
    1d08:	0005303a 	rdctl	r2,status
    1d0c:	e0bffc15 	stw	r2,-16(fp)

  NIOS2_WRITE_STATUS (context & ~NIOS2_STATUS_PIE_MSK);
    1d10:	e0fffc17 	ldw	r3,-16(fp)
    1d14:	00bfff84 	movi	r2,-2
    1d18:	1884703a 	and	r2,r3,r2
    1d1c:	1001703a 	wrctl	status,r2
  
  return context;
    1d20:	e0bffc17 	ldw	r2,-16(fp)

  /* 
   * Notify the system of a clock tick. disable interrupts 
   * during this time to safely support ISR preemption
   */
  cpu_sr = alt_irq_disable_all();
    1d24:	e0bffb15 	stw	r2,-20(fp)
  alt_tick ();
    1d28:	0003a800 	call	3a80 <alt_tick>
    1d2c:	e0bffb17 	ldw	r2,-20(fp)
    1d30:	e0bffd15 	stw	r2,-12(fp)
  status &= ~NIOS2_STATUS_PIE_MSK;
  status |= (context & NIOS2_STATUS_PIE_MSK);
  
  NIOS2_WRITE_STATUS (status);
#else
  NIOS2_WRITE_STATUS (context);
    1d34:	e0bffd17 	ldw	r2,-12(fp)
    1d38:	1001703a 	wrctl	status,r2
  alt_irq_enable_all(cpu_sr);
}
    1d3c:	0001883a 	nop
    1d40:	e037883a 	mov	sp,fp
    1d44:	dfc00117 	ldw	ra,4(sp)
    1d48:	df000017 	ldw	fp,0(sp)
    1d4c:	dec00204 	addi	sp,sp,8
    1d50:	f800283a 	ret

00001d54 <alt_avalon_timer_sc_init>:
 * auto-generated alt_sys_init() function.
 */

void alt_avalon_timer_sc_init (void* base, alt_u32 irq_controller_id, 
                                alt_u32 irq, alt_u32 freq)
{
    1d54:	defff904 	addi	sp,sp,-28
    1d58:	dfc00615 	stw	ra,24(sp)
    1d5c:	df000515 	stw	fp,20(sp)
    1d60:	df000504 	addi	fp,sp,20
    1d64:	e13ffc15 	stw	r4,-16(fp)
    1d68:	e17ffd15 	stw	r5,-12(fp)
    1d6c:	e1bffe15 	stw	r6,-8(fp)
    1d70:	e1ffff15 	stw	r7,-4(fp)
    1d74:	e0bfff17 	ldw	r2,-4(fp)
    1d78:	e0bffb15 	stw	r2,-20(fp)
 * in order to initialise the value of the clock frequency.
 */

static ALT_INLINE int ALT_ALWAYS_INLINE alt_sysclk_init (alt_u32 nticks)
{
  if (! _alt_tick_rate)
    1d7c:	00800034 	movhi	r2,0
    1d80:	109de404 	addi	r2,r2,30608
    1d84:	10800017 	ldw	r2,0(r2)
    1d88:	1000041e 	bne	r2,zero,1d9c <alt_avalon_timer_sc_init+0x48>
  {
    _alt_tick_rate = nticks;
    1d8c:	00800034 	movhi	r2,0
    1d90:	109de404 	addi	r2,r2,30608
    1d94:	e0fffb17 	ldw	r3,-20(fp)
    1d98:	10c00015 	stw	r3,0(r2)
  
  alt_sysclk_init (freq);
  
  /* set to free running mode */
  
  IOWR_ALTERA_AVALON_TIMER_CONTROL (base, 
    1d9c:	e0bffc17 	ldw	r2,-16(fp)
    1da0:	10800104 	addi	r2,r2,4
    1da4:	00c001c4 	movi	r3,7
    1da8:	10c00035 	stwio	r3,0(r2)
  /* register the interrupt handler, and enable the interrupt */
#ifdef ALT_ENHANCED_INTERRUPT_API_PRESENT
  alt_ic_isr_register(irq_controller_id, irq, alt_avalon_timer_sc_irq, 
                      base, NULL);
#else
  alt_irq_register (irq, base, alt_avalon_timer_sc_irq);
    1dac:	01800034 	movhi	r6,0
    1db0:	31873604 	addi	r6,r6,7384
    1db4:	e17ffc17 	ldw	r5,-16(fp)
    1db8:	e13ffe17 	ldw	r4,-8(fp)
    1dbc:	0000bbc0 	call	bbc <alt_irq_register>
#endif  
}
    1dc0:	0001883a 	nop
    1dc4:	e037883a 	mov	sp,fp
    1dc8:	dfc00117 	ldw	ra,4(sp)
    1dcc:	df000017 	ldw	fp,0(sp)
    1dd0:	dec00204 	addi	sp,sp,8
    1dd4:	f800283a 	ret

00001dd8 <get_DDRAM_addr>:
 * @sa the datasheet for the LCD Display Controller on the DE2 Board
 * @note the function requires that the input are in the valid range
 *
 **/
unsigned char get_DDRAM_addr(unsigned x_pos, unsigned y_pos)
{
    1dd8:	defffc04 	addi	sp,sp,-16
    1ddc:	df000315 	stw	fp,12(sp)
    1de0:	df000304 	addi	fp,sp,12
    1de4:	e13ffe15 	stw	r4,-8(fp)
    1de8:	e17fff15 	stw	r5,-4(fp)
	//assume valid inputs
	unsigned char addr = 0x00000000;
    1dec:	e03ffd05 	stb	zero,-12(fp)
	if (y_pos == 0)
    1df0:	e0bfff17 	ldw	r2,-4(fp)
    1df4:	1000061e 	bne	r2,zero,1e10 <get_DDRAM_addr+0x38>
	{
		addr |= x_pos;
    1df8:	e0bffe17 	ldw	r2,-8(fp)
    1dfc:	1007883a 	mov	r3,r2
    1e00:	e0bffd03 	ldbu	r2,-12(fp)
    1e04:	1884b03a 	or	r2,r3,r2
    1e08:	e0bffd05 	stb	r2,-12(fp)
    1e0c:	00000806 	br	1e30 <get_DDRAM_addr+0x58>
	}
	else
	{
		addr |= x_pos;
    1e10:	e0bffe17 	ldw	r2,-8(fp)
    1e14:	1007883a 	mov	r3,r2
    1e18:	e0bffd03 	ldbu	r2,-12(fp)
    1e1c:	1884b03a 	or	r2,r3,r2
    1e20:	e0bffd05 	stb	r2,-12(fp)
		addr |= 0x00000040;
    1e24:	e0bffd03 	ldbu	r2,-12(fp)
    1e28:	10801014 	ori	r2,r2,64
    1e2c:	e0bffd05 	stb	r2,-12(fp)
	}
	// b_7 is always 1 for DDRAM address, see datasheet
	return (addr | 0x00000080);
    1e30:	e0fffd03 	ldbu	r3,-12(fp)
    1e34:	00bfe004 	movi	r2,-128
    1e38:	1884b03a 	or	r2,r3,r2
}
    1e3c:	e037883a 	mov	sp,fp
    1e40:	df000017 	ldw	fp,0(sp)
    1e44:	dec00104 	addi	sp,sp,4
    1e48:	f800283a 	ret

00001e4c <alt_up_character_lcd_send_cmd>:
 * @param cmd -- the command bits 
 *
 * @return nothing
 **/
void alt_up_character_lcd_send_cmd(alt_up_character_lcd_dev *lcd, unsigned char cmd)
{
    1e4c:	defffd04 	addi	sp,sp,-12
    1e50:	df000215 	stw	fp,8(sp)
    1e54:	df000204 	addi	fp,sp,8
    1e58:	e13ffe15 	stw	r4,-8(fp)
    1e5c:	2805883a 	mov	r2,r5
    1e60:	e0bfff05 	stb	r2,-4(fp)
 	// NOTE: We use the term Instruction Register and Control Register interchangeably
	IOWR_ALT_UP_CHARACTER_LCD_COMMAND(lcd->base, cmd);
    1e64:	e0bffe17 	ldw	r2,-8(fp)
    1e68:	10800a17 	ldw	r2,40(r2)
    1e6c:	1007883a 	mov	r3,r2
    1e70:	e0bfff03 	ldbu	r2,-4(fp)
    1e74:	18800025 	stbio	r2,0(r3)
}
    1e78:	0001883a 	nop
    1e7c:	e037883a 	mov	sp,fp
    1e80:	df000017 	ldw	fp,0(sp)
    1e84:	dec00104 	addi	sp,sp,4
    1e88:	f800283a 	ret

00001e8c <alt_up_character_lcd_init>:
 * file for a detailed description of each function
 */
////////////////////////////////////////////////////////////////////////////

void alt_up_character_lcd_init(alt_up_character_lcd_dev *lcd)
{
    1e8c:	defffe04 	addi	sp,sp,-8
    1e90:	df000115 	stw	fp,4(sp)
    1e94:	df000104 	addi	fp,sp,4
    1e98:	e13fff15 	stw	r4,-4(fp)
	IOWR_ALT_UP_CHARACTER_LCD_COMMAND(lcd->base, ALT_UP_CHARACTER_LCD_COMM_CLEAR_DISPLAY);
    1e9c:	e0bfff17 	ldw	r2,-4(fp)
    1ea0:	10800a17 	ldw	r2,40(r2)
    1ea4:	1007883a 	mov	r3,r2
    1ea8:	00800044 	movi	r2,1
    1eac:	18800025 	stbio	r2,0(r3)
	// register the device 
	// see "Developing Device Drivers for the HAL" in "Nios II Software Developer's Handbook"
}
    1eb0:	0001883a 	nop
    1eb4:	e037883a 	mov	sp,fp
    1eb8:	df000017 	ldw	fp,0(sp)
    1ebc:	dec00104 	addi	sp,sp,4
    1ec0:	f800283a 	ret

00001ec4 <alt_up_character_lcd_open_dev>:

alt_up_character_lcd_dev* alt_up_character_lcd_open_dev(const char* name)
{
    1ec4:	defffc04 	addi	sp,sp,-16
    1ec8:	dfc00315 	stw	ra,12(sp)
    1ecc:	df000215 	stw	fp,8(sp)
    1ed0:	df000204 	addi	fp,sp,8
    1ed4:	e13fff15 	stw	r4,-4(fp)
  // find the device from the device list 
  // (see altera_hal/HAL/inc/priv/alt_file.h 
  // and altera_hal/HAL/src/alt_find_dev.c 
  // for details)
  alt_up_character_lcd_dev *dev = (alt_up_character_lcd_dev*)alt_find_dev(name, &alt_dev_list);
    1ed8:	01400034 	movhi	r5,0
    1edc:	29577104 	addi	r5,r5,24004
    1ee0:	e13fff17 	ldw	r4,-4(fp)
    1ee4:	00035080 	call	3508 <alt_find_dev>
    1ee8:	e0bffe15 	stw	r2,-8(fp)

  return dev;
    1eec:	e0bffe17 	ldw	r2,-8(fp)
}
    1ef0:	e037883a 	mov	sp,fp
    1ef4:	dfc00117 	ldw	ra,4(sp)
    1ef8:	df000017 	ldw	fp,0(sp)
    1efc:	dec00204 	addi	sp,sp,8
    1f00:	f800283a 	ret

00001f04 <alt_up_character_lcd_write>:

void alt_up_character_lcd_write(alt_up_character_lcd_dev *dev, const char *ptr, unsigned int len)
{
    1f04:	defffb04 	addi	sp,sp,-20
    1f08:	df000415 	stw	fp,16(sp)
    1f0c:	df000404 	addi	fp,sp,16
    1f10:	e13ffd15 	stw	r4,-12(fp)
    1f14:	e17ffe15 	stw	r5,-8(fp)
    1f18:	e1bfff15 	stw	r6,-4(fp)
	unsigned int i;
	for (i = 0; i < len; i++)
    1f1c:	e03ffc15 	stw	zero,-16(fp)
    1f20:	00000f06 	br	1f60 <alt_up_character_lcd_write+0x5c>
	{
		IOWR_ALT_UP_CHARACTER_LCD_DATA(dev->base, *(ptr+i));
    1f24:	e0bffd17 	ldw	r2,-12(fp)
    1f28:	10800a17 	ldw	r2,40(r2)
    1f2c:	10800044 	addi	r2,r2,1
    1f30:	1009883a 	mov	r4,r2
    1f34:	e0fffe17 	ldw	r3,-8(fp)
    1f38:	e0bffc17 	ldw	r2,-16(fp)
    1f3c:	1885883a 	add	r2,r3,r2
    1f40:	10800003 	ldbu	r2,0(r2)
    1f44:	10803fcc 	andi	r2,r2,255
    1f48:	1080201c 	xori	r2,r2,128
    1f4c:	10bfe004 	addi	r2,r2,-128
    1f50:	20800025 	stbio	r2,0(r4)
}

void alt_up_character_lcd_write(alt_up_character_lcd_dev *dev, const char *ptr, unsigned int len)
{
	unsigned int i;
	for (i = 0; i < len; i++)
    1f54:	e0bffc17 	ldw	r2,-16(fp)
    1f58:	10800044 	addi	r2,r2,1
    1f5c:	e0bffc15 	stw	r2,-16(fp)
    1f60:	e0fffc17 	ldw	r3,-16(fp)
    1f64:	e0bfff17 	ldw	r2,-4(fp)
    1f68:	18bfee36 	bltu	r3,r2,1f24 <__alt_mem_VGA_Subsystem_Char_Buf_Subsystem_Onchip_SRAM+0xf7001f24>
	{
		IOWR_ALT_UP_CHARACTER_LCD_DATA(dev->base, *(ptr+i));
	}
}
    1f6c:	0001883a 	nop
    1f70:	e037883a 	mov	sp,fp
    1f74:	df000017 	ldw	fp,0(sp)
    1f78:	dec00104 	addi	sp,sp,4
    1f7c:	f800283a 	ret

00001f80 <alt_up_character_lcd_string>:

void alt_up_character_lcd_string(alt_up_character_lcd_dev *dev, const char *ptr)
{
    1f80:	defffd04 	addi	sp,sp,-12
    1f84:	df000215 	stw	fp,8(sp)
    1f88:	df000204 	addi	fp,sp,8
    1f8c:	e13ffe15 	stw	r4,-8(fp)
    1f90:	e17fff15 	stw	r5,-4(fp)
	while ( *ptr )
    1f94:	00000d06 	br	1fcc <alt_up_character_lcd_string+0x4c>
	{
		IOWR_ALT_UP_CHARACTER_LCD_DATA(dev->base, *(ptr));
    1f98:	e0bffe17 	ldw	r2,-8(fp)
    1f9c:	10800a17 	ldw	r2,40(r2)
    1fa0:	10800044 	addi	r2,r2,1
    1fa4:	1007883a 	mov	r3,r2
    1fa8:	e0bfff17 	ldw	r2,-4(fp)
    1fac:	10800003 	ldbu	r2,0(r2)
    1fb0:	10803fcc 	andi	r2,r2,255
    1fb4:	1080201c 	xori	r2,r2,128
    1fb8:	10bfe004 	addi	r2,r2,-128
    1fbc:	18800025 	stbio	r2,0(r3)
		++ptr;
    1fc0:	e0bfff17 	ldw	r2,-4(fp)
    1fc4:	10800044 	addi	r2,r2,1
    1fc8:	e0bfff15 	stw	r2,-4(fp)
	}
}

void alt_up_character_lcd_string(alt_up_character_lcd_dev *dev, const char *ptr)
{
	while ( *ptr )
    1fcc:	e0bfff17 	ldw	r2,-4(fp)
    1fd0:	10800003 	ldbu	r2,0(r2)
    1fd4:	10803fcc 	andi	r2,r2,255
    1fd8:	1080201c 	xori	r2,r2,128
    1fdc:	10bfe004 	addi	r2,r2,-128
    1fe0:	103fed1e 	bne	r2,zero,1f98 <__alt_mem_VGA_Subsystem_Char_Buf_Subsystem_Onchip_SRAM+0xf7001f98>
	{
		IOWR_ALT_UP_CHARACTER_LCD_DATA(dev->base, *(ptr));
		++ptr;
	}
}
    1fe4:	0001883a 	nop
    1fe8:	e037883a 	mov	sp,fp
    1fec:	df000017 	ldw	fp,0(sp)
    1ff0:	dec00104 	addi	sp,sp,4
    1ff4:	f800283a 	ret

00001ff8 <alt_up_character_lcd_write_fd>:

// this function isn't used, and is included for future upgrades
int alt_up_character_lcd_write_fd(alt_fd *fd, const char *ptr, int len)
{
    1ff8:	defffb04 	addi	sp,sp,-20
    1ffc:	dfc00415 	stw	ra,16(sp)
    2000:	df000315 	stw	fp,12(sp)
    2004:	df000304 	addi	fp,sp,12
    2008:	e13ffd15 	stw	r4,-12(fp)
    200c:	e17ffe15 	stw	r5,-8(fp)
    2010:	e1bfff15 	stw	r6,-4(fp)
	alt_up_character_lcd_write( (alt_up_character_lcd_dev *) fd->dev, ptr, (unsigned int) len);
    2014:	e0bffd17 	ldw	r2,-12(fp)
    2018:	10800017 	ldw	r2,0(r2)
    201c:	e0ffff17 	ldw	r3,-4(fp)
    2020:	180d883a 	mov	r6,r3
    2024:	e17ffe17 	ldw	r5,-8(fp)
    2028:	1009883a 	mov	r4,r2
    202c:	0001f040 	call	1f04 <alt_up_character_lcd_write>
	return 0;
    2030:	0005883a 	mov	r2,zero
}
    2034:	e037883a 	mov	sp,fp
    2038:	dfc00117 	ldw	ra,4(sp)
    203c:	df000017 	ldw	fp,0(sp)
    2040:	dec00204 	addi	sp,sp,8
    2044:	f800283a 	ret

00002048 <alt_up_character_lcd_set_cursor_pos>:

int alt_up_character_lcd_set_cursor_pos(alt_up_character_lcd_dev *lcd, unsigned x_pos, 
	 unsigned y_pos)
{
    2048:	defffa04 	addi	sp,sp,-24
    204c:	dfc00515 	stw	ra,20(sp)
    2050:	df000415 	stw	fp,16(sp)
    2054:	df000404 	addi	fp,sp,16
    2058:	e13ffd15 	stw	r4,-12(fp)
    205c:	e17ffe15 	stw	r5,-8(fp)
    2060:	e1bfff15 	stw	r6,-4(fp)
	//boundary check
	if (x_pos > 39 || y_pos > 1 )
    2064:	e0bffe17 	ldw	r2,-8(fp)
    2068:	10800a28 	cmpgeui	r2,r2,40
    206c:	1000031e 	bne	r2,zero,207c <alt_up_character_lcd_set_cursor_pos+0x34>
    2070:	e0bfff17 	ldw	r2,-4(fp)
    2074:	108000b0 	cmpltui	r2,r2,2
    2078:	1000021e 	bne	r2,zero,2084 <alt_up_character_lcd_set_cursor_pos+0x3c>
		// invalid argument
		return -1;
    207c:	00bfffc4 	movi	r2,-1
    2080:	00000906 	br	20a8 <alt_up_character_lcd_set_cursor_pos+0x60>
	// calculate address
	unsigned char addr = get_DDRAM_addr(x_pos, y_pos);
    2084:	e17fff17 	ldw	r5,-4(fp)
    2088:	e13ffe17 	ldw	r4,-8(fp)
    208c:	0001dd80 	call	1dd8 <get_DDRAM_addr>
    2090:	e0bffc05 	stb	r2,-16(fp)
	// set the cursor
	alt_up_character_lcd_send_cmd(lcd, addr);
    2094:	e0bffc03 	ldbu	r2,-16(fp)
    2098:	100b883a 	mov	r5,r2
    209c:	e13ffd17 	ldw	r4,-12(fp)
    20a0:	0001e4c0 	call	1e4c <alt_up_character_lcd_send_cmd>
	return 0;
    20a4:	0005883a 	mov	r2,zero
}
    20a8:	e037883a 	mov	sp,fp
    20ac:	dfc00117 	ldw	ra,4(sp)
    20b0:	df000017 	ldw	fp,0(sp)
    20b4:	dec00204 	addi	sp,sp,8
    20b8:	f800283a 	ret

000020bc <alt_up_character_lcd_shift_cursor>:

void alt_up_character_lcd_shift_cursor(alt_up_character_lcd_dev *lcd, int x_right_shift_offset)
{
    20bc:	defffb04 	addi	sp,sp,-20
    20c0:	dfc00415 	stw	ra,16(sp)
    20c4:	df000315 	stw	fp,12(sp)
    20c8:	df000304 	addi	fp,sp,12
    20cc:	e13ffe15 	stw	r4,-8(fp)
    20d0:	e17fff15 	stw	r5,-4(fp)
	if (x_right_shift_offset == 0) 
    20d4:	e0bfff17 	ldw	r2,-4(fp)
    20d8:	10001526 	beq	r2,zero,2130 <alt_up_character_lcd_shift_cursor+0x74>
		// don't ask me to do nothing 
		return;

	// see shift right or left
	unsigned char shift_cmd = (x_right_shift_offset > 0) ? 
    20dc:	e0bfff17 	ldw	r2,-4(fp)
    20e0:	0080020e 	bge	zero,r2,20ec <alt_up_character_lcd_shift_cursor+0x30>
    20e4:	00800504 	movi	r2,20
    20e8:	00000106 	br	20f0 <alt_up_character_lcd_shift_cursor+0x34>
    20ec:	00800404 	movi	r2,16
    20f0:	e0bffd45 	stb	r2,-11(fp)
		ALT_UP_CHARACTER_LCD_COMM_CURSOR_SHIFT_RIGHT : ALT_UP_CHARACTER_LCD_COMM_CURSOR_SHIFT_LEFT;
	// see how many to shift
	unsigned char num_offset = (x_right_shift_offset > 0) ? x_right_shift_offset : 
    20f4:	e0bfff17 	ldw	r2,-4(fp)
    20f8:	1000010e 	bge	r2,zero,2100 <alt_up_character_lcd_shift_cursor+0x44>
    20fc:	0085c83a 	sub	r2,zero,r2
    2100:	e0bffd05 	stb	r2,-12(fp)
		-x_right_shift_offset;
	// do the shift
	while (num_offset-- > 0)
    2104:	00000406 	br	2118 <alt_up_character_lcd_shift_cursor+0x5c>
		alt_up_character_lcd_send_cmd(lcd, shift_cmd);
    2108:	e0bffd43 	ldbu	r2,-11(fp)
    210c:	100b883a 	mov	r5,r2
    2110:	e13ffe17 	ldw	r4,-8(fp)
    2114:	0001e4c0 	call	1e4c <alt_up_character_lcd_send_cmd>
		ALT_UP_CHARACTER_LCD_COMM_CURSOR_SHIFT_RIGHT : ALT_UP_CHARACTER_LCD_COMM_CURSOR_SHIFT_LEFT;
	// see how many to shift
	unsigned char num_offset = (x_right_shift_offset > 0) ? x_right_shift_offset : 
		-x_right_shift_offset;
	// do the shift
	while (num_offset-- > 0)
    2118:	e0bffd03 	ldbu	r2,-12(fp)
    211c:	10ffffc4 	addi	r3,r2,-1
    2120:	e0fffd05 	stb	r3,-12(fp)
    2124:	10803fcc 	andi	r2,r2,255
    2128:	103ff71e 	bne	r2,zero,2108 <__alt_mem_VGA_Subsystem_Char_Buf_Subsystem_Onchip_SRAM+0xf7002108>
    212c:	00000106 	br	2134 <alt_up_character_lcd_shift_cursor+0x78>

void alt_up_character_lcd_shift_cursor(alt_up_character_lcd_dev *lcd, int x_right_shift_offset)
{
	if (x_right_shift_offset == 0) 
		// don't ask me to do nothing 
		return;
    2130:	0001883a 	nop
	unsigned char num_offset = (x_right_shift_offset > 0) ? x_right_shift_offset : 
		-x_right_shift_offset;
	// do the shift
	while (num_offset-- > 0)
		alt_up_character_lcd_send_cmd(lcd, shift_cmd);
}
    2134:	e037883a 	mov	sp,fp
    2138:	dfc00117 	ldw	ra,4(sp)
    213c:	df000017 	ldw	fp,0(sp)
    2140:	dec00204 	addi	sp,sp,8
    2144:	f800283a 	ret

00002148 <alt_up_character_lcd_shift_display>:

void alt_up_character_lcd_shift_display(alt_up_character_lcd_dev *lcd, int x_right_shift_offset)
{
    2148:	defffb04 	addi	sp,sp,-20
    214c:	dfc00415 	stw	ra,16(sp)
    2150:	df000315 	stw	fp,12(sp)
    2154:	df000304 	addi	fp,sp,12
    2158:	e13ffe15 	stw	r4,-8(fp)
    215c:	e17fff15 	stw	r5,-4(fp)
	if (x_right_shift_offset == 0) 
    2160:	e0bfff17 	ldw	r2,-4(fp)
    2164:	10001526 	beq	r2,zero,21bc <alt_up_character_lcd_shift_display+0x74>
		// don't ask me to do nothing 
		return;

	// see shift right or left
	unsigned char shift_cmd = (x_right_shift_offset > 0) ? 
    2168:	e0bfff17 	ldw	r2,-4(fp)
    216c:	0080020e 	bge	zero,r2,2178 <alt_up_character_lcd_shift_display+0x30>
    2170:	00800704 	movi	r2,28
    2174:	00000106 	br	217c <alt_up_character_lcd_shift_display+0x34>
    2178:	00800604 	movi	r2,24
    217c:	e0bffd45 	stb	r2,-11(fp)
		ALT_UP_CHARACTER_LCD_COMM_DISPLAY_SHIFT_RIGHT : ALT_UP_CHARACTER_LCD_COMM_DISPLAY_SHIFT_LEFT;
	// see how many to shift
	unsigned char num_offset = (x_right_shift_offset > 0) ? x_right_shift_offset : 
    2180:	e0bfff17 	ldw	r2,-4(fp)
    2184:	1000010e 	bge	r2,zero,218c <alt_up_character_lcd_shift_display+0x44>
    2188:	0085c83a 	sub	r2,zero,r2
    218c:	e0bffd05 	stb	r2,-12(fp)
		-x_right_shift_offset;
	// do the shift
	while (num_offset-- > 0)
    2190:	00000406 	br	21a4 <alt_up_character_lcd_shift_display+0x5c>
		alt_up_character_lcd_send_cmd(lcd, shift_cmd);
    2194:	e0bffd43 	ldbu	r2,-11(fp)
    2198:	100b883a 	mov	r5,r2
    219c:	e13ffe17 	ldw	r4,-8(fp)
    21a0:	0001e4c0 	call	1e4c <alt_up_character_lcd_send_cmd>
		ALT_UP_CHARACTER_LCD_COMM_DISPLAY_SHIFT_RIGHT : ALT_UP_CHARACTER_LCD_COMM_DISPLAY_SHIFT_LEFT;
	// see how many to shift
	unsigned char num_offset = (x_right_shift_offset > 0) ? x_right_shift_offset : 
		-x_right_shift_offset;
	// do the shift
	while (num_offset-- > 0)
    21a4:	e0bffd03 	ldbu	r2,-12(fp)
    21a8:	10ffffc4 	addi	r3,r2,-1
    21ac:	e0fffd05 	stb	r3,-12(fp)
    21b0:	10803fcc 	andi	r2,r2,255
    21b4:	103ff71e 	bne	r2,zero,2194 <__alt_mem_VGA_Subsystem_Char_Buf_Subsystem_Onchip_SRAM+0xf7002194>
    21b8:	00000106 	br	21c0 <alt_up_character_lcd_shift_display+0x78>

void alt_up_character_lcd_shift_display(alt_up_character_lcd_dev *lcd, int x_right_shift_offset)
{
	if (x_right_shift_offset == 0) 
		// don't ask me to do nothing 
		return;
    21bc:	0001883a 	nop
	unsigned char num_offset = (x_right_shift_offset > 0) ? x_right_shift_offset : 
		-x_right_shift_offset;
	// do the shift
	while (num_offset-- > 0)
		alt_up_character_lcd_send_cmd(lcd, shift_cmd);
}
    21c0:	e037883a 	mov	sp,fp
    21c4:	dfc00117 	ldw	ra,4(sp)
    21c8:	df000017 	ldw	fp,0(sp)
    21cc:	dec00204 	addi	sp,sp,8
    21d0:	f800283a 	ret

000021d4 <alt_up_character_lcd_erase_pos>:

int alt_up_character_lcd_erase_pos(alt_up_character_lcd_dev *lcd, unsigned x_pos, unsigned y_pos)
{
    21d4:	defffa04 	addi	sp,sp,-24
    21d8:	dfc00515 	stw	ra,20(sp)
    21dc:	df000415 	stw	fp,16(sp)
    21e0:	df000404 	addi	fp,sp,16
    21e4:	e13ffd15 	stw	r4,-12(fp)
    21e8:	e17ffe15 	stw	r5,-8(fp)
    21ec:	e1bfff15 	stw	r6,-4(fp)
	// boundary check
	if (x_pos > 39 || y_pos > 1 )
    21f0:	e0bffe17 	ldw	r2,-8(fp)
    21f4:	10800a28 	cmpgeui	r2,r2,40
    21f8:	1000031e 	bne	r2,zero,2208 <alt_up_character_lcd_erase_pos+0x34>
    21fc:	e0bfff17 	ldw	r2,-4(fp)
    2200:	108000b0 	cmpltui	r2,r2,2
    2204:	1000021e 	bne	r2,zero,2210 <alt_up_character_lcd_erase_pos+0x3c>
		return -1;
    2208:	00bfffc4 	movi	r2,-1
    220c:	00000f06 	br	224c <alt_up_character_lcd_erase_pos+0x78>

	// get address
	unsigned char addr = get_DDRAM_addr(x_pos, y_pos);
    2210:	e17fff17 	ldw	r5,-4(fp)
    2214:	e13ffe17 	ldw	r4,-8(fp)
    2218:	0001dd80 	call	1dd8 <get_DDRAM_addr>
    221c:	e0bffc05 	stb	r2,-16(fp)
	// set cursor to dest point
	alt_up_character_lcd_send_cmd(lcd, addr);
    2220:	e0bffc03 	ldbu	r2,-16(fp)
    2224:	100b883a 	mov	r5,r2
    2228:	e13ffd17 	ldw	r4,-12(fp)
    222c:	0001e4c0 	call	1e4c <alt_up_character_lcd_send_cmd>
	//send an empty char as erase (refer to the Character Generator ROM part of the Datasheet)
	IOWR_ALT_UP_CHARACTER_LCD_DATA(lcd->base, (0x00000002) );
    2230:	e0bffd17 	ldw	r2,-12(fp)
    2234:	10800a17 	ldw	r2,40(r2)
    2238:	10800044 	addi	r2,r2,1
    223c:	1007883a 	mov	r3,r2
    2240:	00800084 	movi	r2,2
    2244:	18800025 	stbio	r2,0(r3)
	return 0;
    2248:	0005883a 	mov	r2,zero
}
    224c:	e037883a 	mov	sp,fp
    2250:	dfc00117 	ldw	ra,4(sp)
    2254:	df000017 	ldw	fp,0(sp)
    2258:	dec00204 	addi	sp,sp,8
    225c:	f800283a 	ret

00002260 <alt_up_character_lcd_cursor_off>:

void alt_up_character_lcd_cursor_off(alt_up_character_lcd_dev *lcd)
{
    2260:	defffd04 	addi	sp,sp,-12
    2264:	dfc00215 	stw	ra,8(sp)
    2268:	df000115 	stw	fp,4(sp)
    226c:	df000104 	addi	fp,sp,4
    2270:	e13fff15 	stw	r4,-4(fp)
	alt_up_character_lcd_send_cmd(lcd, ALT_UP_CHARACTER_LCD_COMM_CURSOR_OFF);
    2274:	01400304 	movi	r5,12
    2278:	e13fff17 	ldw	r4,-4(fp)
    227c:	0001e4c0 	call	1e4c <alt_up_character_lcd_send_cmd>
}
    2280:	0001883a 	nop
    2284:	e037883a 	mov	sp,fp
    2288:	dfc00117 	ldw	ra,4(sp)
    228c:	df000017 	ldw	fp,0(sp)
    2290:	dec00204 	addi	sp,sp,8
    2294:	f800283a 	ret

00002298 <alt_up_character_lcd_cursor_blink_on>:

void alt_up_character_lcd_cursor_blink_on(alt_up_character_lcd_dev *lcd)
{
    2298:	defffd04 	addi	sp,sp,-12
    229c:	dfc00215 	stw	ra,8(sp)
    22a0:	df000115 	stw	fp,4(sp)
    22a4:	df000104 	addi	fp,sp,4
    22a8:	e13fff15 	stw	r4,-4(fp)
	alt_up_character_lcd_send_cmd(lcd, ALT_UP_CHARACTER_LCD_COMM_CURSOR_BLINK_ON);
    22ac:	014003c4 	movi	r5,15
    22b0:	e13fff17 	ldw	r4,-4(fp)
    22b4:	0001e4c0 	call	1e4c <alt_up_character_lcd_send_cmd>
}
    22b8:	0001883a 	nop
    22bc:	e037883a 	mov	sp,fp
    22c0:	dfc00117 	ldw	ra,4(sp)
    22c4:	df000017 	ldw	fp,0(sp)
    22c8:	dec00204 	addi	sp,sp,8
    22cc:	f800283a 	ret

000022d0 <alt_up_irda_enable_read_interrupt>:
#include "altera_up_avalon_irda.h"
#include "altera_up_avalon_irda_regs.h"


void alt_up_irda_enable_read_interrupt(alt_up_irda_dev *irda)
{
    22d0:	defffd04 	addi	sp,sp,-12
    22d4:	df000215 	stw	fp,8(sp)
    22d8:	df000204 	addi	fp,sp,8
    22dc:	e13fff15 	stw	r4,-4(fp)
	alt_u32 ctrl_reg;
	ctrl_reg = IORD_ALT_UP_IRDA_CONTROL(irda->base); 
    22e0:	e0bfff17 	ldw	r2,-4(fp)
    22e4:	10800a17 	ldw	r2,40(r2)
    22e8:	10800104 	addi	r2,r2,4
    22ec:	10800037 	ldwio	r2,0(r2)
    22f0:	e0bffe15 	stw	r2,-8(fp)
	// set RE to 1 while maintaining other bits the same
	ctrl_reg |= ALT_UP_IRDA_CONTROL_RE_MSK;
    22f4:	e0bffe17 	ldw	r2,-8(fp)
    22f8:	10800054 	ori	r2,r2,1
    22fc:	e0bffe15 	stw	r2,-8(fp)
	IOWR_ALT_UP_IRDA_CONTROL(irda->base, ctrl_reg);
    2300:	e0bfff17 	ldw	r2,-4(fp)
    2304:	10800a17 	ldw	r2,40(r2)
    2308:	10800104 	addi	r2,r2,4
    230c:	1007883a 	mov	r3,r2
    2310:	e0bffe17 	ldw	r2,-8(fp)
    2314:	18800035 	stwio	r2,0(r3)
}
    2318:	0001883a 	nop
    231c:	e037883a 	mov	sp,fp
    2320:	df000017 	ldw	fp,0(sp)
    2324:	dec00104 	addi	sp,sp,4
    2328:	f800283a 	ret

0000232c <alt_up_irda_disable_read_interrupt>:

void alt_up_irda_disable_read_interrupt(alt_up_irda_dev *irda)
{
    232c:	defffd04 	addi	sp,sp,-12
    2330:	df000215 	stw	fp,8(sp)
    2334:	df000204 	addi	fp,sp,8
    2338:	e13fff15 	stw	r4,-4(fp)
	alt_u32 ctrl_reg;
	ctrl_reg = IORD_ALT_UP_IRDA_CONTROL(irda->base); 
    233c:	e0bfff17 	ldw	r2,-4(fp)
    2340:	10800a17 	ldw	r2,40(r2)
    2344:	10800104 	addi	r2,r2,4
    2348:	10800037 	ldwio	r2,0(r2)
    234c:	e0bffe15 	stw	r2,-8(fp)
	// set RE to 0 while maintaining other bits the same
	ctrl_reg &= ~ALT_UP_IRDA_CONTROL_RE_MSK;
    2350:	e0fffe17 	ldw	r3,-8(fp)
    2354:	00bfff84 	movi	r2,-2
    2358:	1884703a 	and	r2,r3,r2
    235c:	e0bffe15 	stw	r2,-8(fp)
	IOWR_ALT_UP_IRDA_CONTROL(irda->base, ctrl_reg);
    2360:	e0bfff17 	ldw	r2,-4(fp)
    2364:	10800a17 	ldw	r2,40(r2)
    2368:	10800104 	addi	r2,r2,4
    236c:	1007883a 	mov	r3,r2
    2370:	e0bffe17 	ldw	r2,-8(fp)
    2374:	18800035 	stwio	r2,0(r3)
}
    2378:	0001883a 	nop
    237c:	e037883a 	mov	sp,fp
    2380:	df000017 	ldw	fp,0(sp)
    2384:	dec00104 	addi	sp,sp,4
    2388:	f800283a 	ret

0000238c <alt_up_irda_get_used_space_in_read_FIFO>:

unsigned alt_up_irda_get_used_space_in_read_FIFO(alt_up_irda_dev *irda)
{
    238c:	defffd04 	addi	sp,sp,-12
    2390:	df000215 	stw	fp,8(sp)
    2394:	df000204 	addi	fp,sp,8
    2398:	e13fff15 	stw	r4,-4(fp)
	alt_u16 ravail = 0;
    239c:	e03ffe0d 	sth	zero,-8(fp)
	// we can only read the 16 bits for RAVAIL --- a read of DATA will discard the data
//	ravail = IORD_16DIRECT(IOADDR_ALT_UP_IRDA_DATA(irda->base), 2); 
//	return ravail;
	ravail = IORD_ALT_UP_IRDA_RAVAIL(irda->base); 
    23a0:	e0bfff17 	ldw	r2,-4(fp)
    23a4:	10800a17 	ldw	r2,40(r2)
    23a8:	10800084 	addi	r2,r2,2
    23ac:	1080002b 	ldhuio	r2,0(r2)
    23b0:	10bfffcc 	andi	r2,r2,65535
    23b4:	e0bffe0d 	sth	r2,-8(fp)
	return (ravail & ALT_UP_IRDA_RAVAIL_MSK) >> ALT_UP_IRDA_RAVAIL_OFST;
    23b8:	e0bffe0b 	ldhu	r2,-8(fp)
}
    23bc:	e037883a 	mov	sp,fp
    23c0:	df000017 	ldw	fp,0(sp)
    23c4:	dec00104 	addi	sp,sp,4
    23c8:	f800283a 	ret

000023cc <alt_up_irda_get_available_space_in_write_FIFO>:

unsigned alt_up_irda_get_available_space_in_write_FIFO(alt_up_irda_dev *irda)
{
    23cc:	defffd04 	addi	sp,sp,-12
    23d0:	df000215 	stw	fp,8(sp)
    23d4:	df000204 	addi	fp,sp,8
    23d8:	e13fff15 	stw	r4,-4(fp)
	alt_u32 ctrl_reg;
	ctrl_reg = IORD_ALT_UP_IRDA_CONTROL(irda->base); 
    23dc:	e0bfff17 	ldw	r2,-4(fp)
    23e0:	10800a17 	ldw	r2,40(r2)
    23e4:	10800104 	addi	r2,r2,4
    23e8:	10800037 	ldwio	r2,0(r2)
    23ec:	e0bffe15 	stw	r2,-8(fp)
	return (ctrl_reg & ALT_UP_IRDA_CONTROL_WSPACE_MSK) >> ALT_UP_IRDA_CONTROL_WSPACE_OFST;
    23f0:	e0bffe17 	ldw	r2,-8(fp)
    23f4:	1004d43a 	srli	r2,r2,16
}
    23f8:	e037883a 	mov	sp,fp
    23fc:	df000017 	ldw	fp,0(sp)
    2400:	dec00104 	addi	sp,sp,4
    2404:	f800283a 	ret

00002408 <alt_up_irda_check_parity>:

int alt_up_irda_check_parity(alt_u32 data_reg)
{
    2408:	defffd04 	addi	sp,sp,-12
    240c:	df000215 	stw	fp,8(sp)
    2410:	df000204 	addi	fp,sp,8
    2414:	e13fff15 	stw	r4,-4(fp)
	unsigned parity_error = (data_reg & ALT_UP_IRDA_DATA_PE_MSK) >> ALT_UP_IRDA_DATA_PE_OFST;
    2418:	e0bfff17 	ldw	r2,-4(fp)
    241c:	1080800c 	andi	r2,r2,512
    2420:	1004d27a 	srli	r2,r2,9
    2424:	e0bffe15 	stw	r2,-8(fp)
	return (parity_error ? -1 : 0);
    2428:	e0bffe17 	ldw	r2,-8(fp)
    242c:	10000226 	beq	r2,zero,2438 <alt_up_irda_check_parity+0x30>
    2430:	00bfffc4 	movi	r2,-1
    2434:	00000106 	br	243c <alt_up_irda_check_parity+0x34>
    2438:	0005883a 	mov	r2,zero
}
    243c:	e037883a 	mov	sp,fp
    2440:	df000017 	ldw	fp,0(sp)
    2444:	dec00104 	addi	sp,sp,4
    2448:	f800283a 	ret

0000244c <alt_up_irda_write_data>:

int alt_up_irda_write_data(alt_up_irda_dev *irda, alt_u8 data)
{
    244c:	defffd04 	addi	sp,sp,-12
    2450:	df000215 	stw	fp,8(sp)
    2454:	df000204 	addi	fp,sp,8
    2458:	e13ffe15 	stw	r4,-8(fp)
    245c:	2805883a 	mov	r2,r5
    2460:	e0bfff05 	stb	r2,-4(fp)
	data_reg = IORD_ALT_UP_IRDA_DATA(irda->base);
    */

	// we can write directly without thinking about other bit fields for this
	// case ONLY, because only DATA field of the data register is writable
	IOWR_ALT_UP_IRDA_DATA(irda->base, (data>>ALT_UP_IRDA_DATA_DATA_OFST) & ALT_UP_IRDA_DATA_DATA_MSK);
    2464:	e0bffe17 	ldw	r2,-8(fp)
    2468:	10800a17 	ldw	r2,40(r2)
    246c:	1007883a 	mov	r3,r2
    2470:	e0bfff03 	ldbu	r2,-4(fp)
    2474:	18800035 	stwio	r2,0(r3)
	return 0;
    2478:	0005883a 	mov	r2,zero
}
    247c:	e037883a 	mov	sp,fp
    2480:	df000017 	ldw	fp,0(sp)
    2484:	dec00104 	addi	sp,sp,4
    2488:	f800283a 	ret

0000248c <alt_up_irda_read_data>:

int alt_up_irda_read_data(alt_up_irda_dev *irda, alt_u8 *data, alt_u8 *parity_error)
{
    248c:	defffa04 	addi	sp,sp,-24
    2490:	dfc00515 	stw	ra,20(sp)
    2494:	df000415 	stw	fp,16(sp)
    2498:	df000404 	addi	fp,sp,16
    249c:	e13ffd15 	stw	r4,-12(fp)
    24a0:	e17ffe15 	stw	r5,-8(fp)
    24a4:	e1bfff15 	stw	r6,-4(fp)
	alt_u32 data_reg;
	data_reg = IORD_ALT_UP_IRDA_DATA(irda->base);
    24a8:	e0bffd17 	ldw	r2,-12(fp)
    24ac:	10800a17 	ldw	r2,40(r2)
    24b0:	10800037 	ldwio	r2,0(r2)
    24b4:	e0bffc15 	stw	r2,-16(fp)
	*data = (data_reg & ALT_UP_IRDA_DATA_DATA_MSK) >> ALT_UP_IRDA_DATA_DATA_OFST;
    24b8:	e0bffc17 	ldw	r2,-16(fp)
    24bc:	1007883a 	mov	r3,r2
    24c0:	e0bffe17 	ldw	r2,-8(fp)
    24c4:	10c00005 	stb	r3,0(r2)
	*parity_error = alt_up_irda_check_parity(data_reg);
    24c8:	e13ffc17 	ldw	r4,-16(fp)
    24cc:	00024080 	call	2408 <alt_up_irda_check_parity>
    24d0:	1007883a 	mov	r3,r2
    24d4:	e0bfff17 	ldw	r2,-4(fp)
    24d8:	10c00005 	stb	r3,0(r2)
	return (((data_reg & ALT_UP_IRDA_DATA_RVALID_MSK) >> ALT_UP_IRDA_DATA_RVALID_OFST) - 1);
    24dc:	e0bffc17 	ldw	r2,-16(fp)
    24e0:	10a0000c 	andi	r2,r2,32768
    24e4:	1004d3fa 	srli	r2,r2,15
    24e8:	10bfffc4 	addi	r2,r2,-1
}
    24ec:	e037883a 	mov	sp,fp
    24f0:	dfc00117 	ldw	ra,4(sp)
    24f4:	df000017 	ldw	fp,0(sp)
    24f8:	dec00204 	addi	sp,sp,8
    24fc:	f800283a 	ret

00002500 <alt_up_irda_read_fd>:

int alt_up_irda_read_fd (alt_fd* fd, char* ptr, int len)
{
    2500:	defff804 	addi	sp,sp,-32
    2504:	dfc00715 	stw	ra,28(sp)
    2508:	df000615 	stw	fp,24(sp)
    250c:	df000604 	addi	fp,sp,24
    2510:	e13ffd15 	stw	r4,-12(fp)
    2514:	e17ffe15 	stw	r5,-8(fp)
    2518:	e1bfff15 	stw	r6,-4(fp)
	alt_up_irda_dev *irda = (alt_up_irda_dev*)fd->dev;
    251c:	e0bffd17 	ldw	r2,-12(fp)
    2520:	10800017 	ldw	r2,0(r2)
    2524:	e0bffb15 	stw	r2,-20(fp)
	int count = 0;
    2528:	e03ffa15 	stw	zero,-24(fp)
	alt_u8 parity_error;
	while(len--)
    252c:	00000c06 	br	2560 <alt_up_irda_read_fd+0x60>
	{
		if (alt_up_irda_read_data(irda, (alt_u8 *)ptr++, &parity_error)==0)
    2530:	e0bffe17 	ldw	r2,-8(fp)
    2534:	10c00044 	addi	r3,r2,1
    2538:	e0fffe15 	stw	r3,-8(fp)
    253c:	e0fffc04 	addi	r3,fp,-16
    2540:	180d883a 	mov	r6,r3
    2544:	100b883a 	mov	r5,r2
    2548:	e13ffb17 	ldw	r4,-20(fp)
    254c:	000248c0 	call	248c <alt_up_irda_read_data>
    2550:	1000081e 	bne	r2,zero,2574 <alt_up_irda_read_fd+0x74>
			count++;
    2554:	e0bffa17 	ldw	r2,-24(fp)
    2558:	10800044 	addi	r2,r2,1
    255c:	e0bffa15 	stw	r2,-24(fp)
int alt_up_irda_read_fd (alt_fd* fd, char* ptr, int len)
{
	alt_up_irda_dev *irda = (alt_up_irda_dev*)fd->dev;
	int count = 0;
	alt_u8 parity_error;
	while(len--)
    2560:	e0bfff17 	ldw	r2,-4(fp)
    2564:	10ffffc4 	addi	r3,r2,-1
    2568:	e0ffff15 	stw	r3,-4(fp)
    256c:	103ff01e 	bne	r2,zero,2530 <__alt_mem_VGA_Subsystem_Char_Buf_Subsystem_Onchip_SRAM+0xf7002530>
    2570:	00000106 	br	2578 <alt_up_irda_read_fd+0x78>
	{
		if (alt_up_irda_read_data(irda, (alt_u8 *)ptr++, &parity_error)==0)
			count++;
		else
			break;
    2574:	0001883a 	nop
	}
	return count;
    2578:	e0bffa17 	ldw	r2,-24(fp)
}
    257c:	e037883a 	mov	sp,fp
    2580:	dfc00117 	ldw	ra,4(sp)
    2584:	df000017 	ldw	fp,0(sp)
    2588:	dec00204 	addi	sp,sp,8
    258c:	f800283a 	ret

00002590 <alt_up_irda_write_fd>:

int alt_up_irda_write_fd (alt_fd* fd, const char* ptr, int len)
{
    2590:	defff904 	addi	sp,sp,-28
    2594:	dfc00615 	stw	ra,24(sp)
    2598:	df000515 	stw	fp,20(sp)
    259c:	df000504 	addi	fp,sp,20
    25a0:	e13ffd15 	stw	r4,-12(fp)
    25a4:	e17ffe15 	stw	r5,-8(fp)
    25a8:	e1bfff15 	stw	r6,-4(fp)
	alt_up_irda_dev *irda = (alt_up_irda_dev*)fd->dev;
    25ac:	e0bffd17 	ldw	r2,-12(fp)
    25b0:	10800017 	ldw	r2,0(r2)
    25b4:	e0bffc15 	stw	r2,-16(fp)
	int count = 0;
    25b8:	e03ffb15 	stw	zero,-20(fp)
	while(len--)
    25bc:	00000c06 	br	25f0 <alt_up_irda_write_fd+0x60>
	{
		if (alt_up_irda_write_data(irda, (alt_u8) *ptr++)==0)
    25c0:	e0bffe17 	ldw	r2,-8(fp)
    25c4:	10c00044 	addi	r3,r2,1
    25c8:	e0fffe15 	stw	r3,-8(fp)
    25cc:	10800003 	ldbu	r2,0(r2)
    25d0:	10803fcc 	andi	r2,r2,255
    25d4:	100b883a 	mov	r5,r2
    25d8:	e13ffc17 	ldw	r4,-16(fp)
    25dc:	000244c0 	call	244c <alt_up_irda_write_data>
    25e0:	1000081e 	bne	r2,zero,2604 <alt_up_irda_write_fd+0x74>
			count++;
    25e4:	e0bffb17 	ldw	r2,-20(fp)
    25e8:	10800044 	addi	r2,r2,1
    25ec:	e0bffb15 	stw	r2,-20(fp)

int alt_up_irda_write_fd (alt_fd* fd, const char* ptr, int len)
{
	alt_up_irda_dev *irda = (alt_up_irda_dev*)fd->dev;
	int count = 0;
	while(len--)
    25f0:	e0bfff17 	ldw	r2,-4(fp)
    25f4:	10ffffc4 	addi	r3,r2,-1
    25f8:	e0ffff15 	stw	r3,-4(fp)
    25fc:	103ff01e 	bne	r2,zero,25c0 <__alt_mem_VGA_Subsystem_Char_Buf_Subsystem_Onchip_SRAM+0xf70025c0>
    2600:	00000106 	br	2608 <alt_up_irda_write_fd+0x78>
	{
		if (alt_up_irda_write_data(irda, (alt_u8) *ptr++)==0)
			count++;
		else
			break;
    2604:	0001883a 	nop
	}
	return count;
    2608:	e0bffb17 	ldw	r2,-20(fp)
}
    260c:	e037883a 	mov	sp,fp
    2610:	dfc00117 	ldw	ra,4(sp)
    2614:	df000017 	ldw	fp,0(sp)
    2618:	dec00204 	addi	sp,sp,8
    261c:	f800283a 	ret

00002620 <alt_up_irda_open_dev>:

alt_up_irda_dev* alt_up_irda_open_dev(const char* name)
{
    2620:	defffc04 	addi	sp,sp,-16
    2624:	dfc00315 	stw	ra,12(sp)
    2628:	df000215 	stw	fp,8(sp)
    262c:	df000204 	addi	fp,sp,8
    2630:	e13fff15 	stw	r4,-4(fp)
  // find the device from the device list 
  // (see altera_hal/HAL/inc/priv/alt_file.h 
  // and altera_hal/HAL/src/alt_find_dev.c 
  // for details)
  alt_up_irda_dev *dev = (alt_up_irda_dev*)alt_find_dev(name, &alt_dev_list);
    2634:	01400034 	movhi	r5,0
    2638:	29577104 	addi	r5,r5,24004
    263c:	e13fff17 	ldw	r4,-4(fp)
    2640:	00035080 	call	3508 <alt_find_dev>
    2644:	e0bffe15 	stw	r2,-8(fp)

  return dev;
    2648:	e0bffe17 	ldw	r2,-8(fp)
}
    264c:	e037883a 	mov	sp,fp
    2650:	dfc00117 	ldw	ra,4(sp)
    2654:	df000017 	ldw	fp,0(sp)
    2658:	dec00204 	addi	sp,sp,8
    265c:	f800283a 	ret

00002660 <read_RI_bit>:


//////////////////////////////////////////////////////////////////////////////////////////////
// Internal Functions
alt_u8 read_RI_bit(alt_u32 ctrl_reg)
{
    2660:	defffd04 	addi	sp,sp,-12
    2664:	df000215 	stw	fp,8(sp)
    2668:	df000204 	addi	fp,sp,8
    266c:	e13fff15 	stw	r4,-4(fp)
	alt_u8 ri = (alt_u8) ((ctrl_reg & ALT_UP_PS2_PORT_CTRL_REG_RI_MSK) >> ALT_UP_PS2_PORT_CTRL_REG_RI_OFST);
    2670:	e0bfff17 	ldw	r2,-4(fp)
    2674:	1080400c 	andi	r2,r2,256
    2678:	1004d23a 	srli	r2,r2,8
    267c:	e0bffe05 	stb	r2,-8(fp)
	return ri;
    2680:	e0bffe03 	ldbu	r2,-8(fp)
}
    2684:	e037883a 	mov	sp,fp
    2688:	df000017 	ldw	fp,0(sp)
    268c:	dec00104 	addi	sp,sp,4
    2690:	f800283a 	ret

00002694 <read_RE_bit>:

alt_u8 read_RE_bit(alt_u32 ctrl_reg)
{
    2694:	defffd04 	addi	sp,sp,-12
    2698:	df000215 	stw	fp,8(sp)
    269c:	df000204 	addi	fp,sp,8
    26a0:	e13fff15 	stw	r4,-4(fp)
	alt_u8 re = (alt_u8) ((ctrl_reg & ALT_UP_PS2_PORT_CTRL_REG_RE_MSK) >> ALT_UP_PS2_PORT_CTRL_REG_RE_OFST);
    26a4:	e0bfff17 	ldw	r2,-4(fp)
    26a8:	1080004c 	andi	r2,r2,1
    26ac:	e0bffe05 	stb	r2,-8(fp)
	return re;
    26b0:	e0bffe03 	ldbu	r2,-8(fp)
}
    26b4:	e037883a 	mov	sp,fp
    26b8:	df000017 	ldw	fp,0(sp)
    26bc:	dec00104 	addi	sp,sp,4
    26c0:	f800283a 	ret

000026c4 <read_CE_bit>:

alt_u8 read_CE_bit(alt_u32 ctrl_reg)
{
    26c4:	defffd04 	addi	sp,sp,-12
    26c8:	df000215 	stw	fp,8(sp)
    26cc:	df000204 	addi	fp,sp,8
    26d0:	e13fff15 	stw	r4,-4(fp)
	alt_u8 re = (alt_u8) ((ctrl_reg & ALT_UP_PS2_PORT_CTRL_REG_CE_MSK) >> ALT_UP_PS2_PORT_CTRL_REG_CE_OFST);
    26d4:	e0bfff17 	ldw	r2,-4(fp)
    26d8:	1081000c 	andi	r2,r2,1024
    26dc:	1004d2ba 	srli	r2,r2,10
    26e0:	e0bffe05 	stb	r2,-8(fp)
	return re;
    26e4:	e0bffe03 	ldbu	r2,-8(fp)
}
    26e8:	e037883a 	mov	sp,fp
    26ec:	df000017 	ldw	fp,0(sp)
    26f0:	dec00104 	addi	sp,sp,4
    26f4:	f800283a 	ret

000026f8 <read_num_bytes_available>:

alt_u16 read_num_bytes_available(alt_u32 data_reg)
{
    26f8:	defffd04 	addi	sp,sp,-12
    26fc:	df000215 	stw	fp,8(sp)
    2700:	df000204 	addi	fp,sp,8
    2704:	e13fff15 	stw	r4,-4(fp)
	alt_u16 ravail = (alt_u16)((data_reg & ALT_UP_PS2_PORT_DATA_REG_RAVAIL_MSK ) >> ALT_UP_PS2_PORT_DATA_REG_RAVAIL_OFST);
    2708:	e0bfff17 	ldw	r2,-4(fp)
    270c:	1004d43a 	srli	r2,r2,16
    2710:	e0bffe0d 	sth	r2,-8(fp)
	return ravail;
    2714:	e0bffe0b 	ldhu	r2,-8(fp)
}
    2718:	e037883a 	mov	sp,fp
    271c:	df000017 	ldw	fp,0(sp)
    2720:	dec00104 	addi	sp,sp,4
    2724:	f800283a 	ret

00002728 <read_data_valid>:

alt_u8 read_data_valid(alt_u32 data_reg)
{
    2728:	defffd04 	addi	sp,sp,-12
    272c:	df000215 	stw	fp,8(sp)
    2730:	df000204 	addi	fp,sp,8
    2734:	e13fff15 	stw	r4,-4(fp)
	alt_u8 rvalid = (alt_u8)((data_reg & ALT_UP_PS2_PORT_DATA_REG_RVALID_MSK ) >> ALT_UP_PS2_PORT_DATA_REG_RVALID_OFST);
    2738:	e0bfff17 	ldw	r2,-4(fp)
    273c:	10a0000c 	andi	r2,r2,32768
    2740:	1004d3fa 	srli	r2,r2,15
    2744:	e0bffe05 	stb	r2,-8(fp)
	return rvalid;
    2748:	e0bffe03 	ldbu	r2,-8(fp)
}
    274c:	e037883a 	mov	sp,fp
    2750:	df000017 	ldw	fp,0(sp)
    2754:	dec00104 	addi	sp,sp,4
    2758:	f800283a 	ret

0000275c <read_data_byte>:

alt_u8 read_data_byte(alt_u32 data_reg)
{
    275c:	defffd04 	addi	sp,sp,-12
    2760:	df000215 	stw	fp,8(sp)
    2764:	df000204 	addi	fp,sp,8
    2768:	e13fff15 	stw	r4,-4(fp)
	alt_u8 data = (alt_u8) ( (data_reg & ALT_UP_PS2_PORT_DATA_REG_DATA_MSK) >> ALT_UP_PS2_PORT_DATA_REG_DATA_OFST) ;
    276c:	e0bfff17 	ldw	r2,-4(fp)
    2770:	e0bffe05 	stb	r2,-8(fp)
	return data;
    2774:	e0bffe03 	ldbu	r2,-8(fp)
}
    2778:	e037883a 	mov	sp,fp
    277c:	df000017 	ldw	fp,0(sp)
    2780:	dec00104 	addi	sp,sp,4
    2784:	f800283a 	ret

00002788 <alt_up_ps2_init>:

//////////////////////////////////////////////////////////////////////////////////////////////
// HAL Functions
void alt_up_ps2_init(alt_up_ps2_dev *ps2)
{
    2788:	defffb04 	addi	sp,sp,-20
    278c:	dfc00415 	stw	ra,16(sp)
    2790:	df000315 	stw	fp,12(sp)
    2794:	df000304 	addi	fp,sp,12
    2798:	e13fff15 	stw	r4,-4(fp)
	// initialize the device
	unsigned char byte;
	//send the reset request, wait for ACK
	int status = alt_up_ps2_write_data_byte_with_ack(ps2, 0xff);
    279c:	01403fc4 	movi	r5,255
    27a0:	e13fff17 	ldw	r4,-4(fp)
    27a4:	00029e80 	call	29e8 <alt_up_ps2_write_data_byte_with_ack>
    27a8:	e0bffd15 	stw	r2,-12(fp)
	if (status == 0)
    27ac:	e0bffd17 	ldw	r2,-12(fp)
    27b0:	1000211e 	bne	r2,zero,2838 <alt_up_ps2_init+0xb0>
	{
		// reset succeed, now try to get the BAT result, AA means passed
		status = alt_up_ps2_read_data_byte_timeout(ps2, &byte);
    27b4:	e0bffe04 	addi	r2,fp,-8
    27b8:	100b883a 	mov	r5,r2
    27bc:	e13fff17 	ldw	r4,-4(fp)
    27c0:	0002a4c0 	call	2a4c <alt_up_ps2_read_data_byte_timeout>
    27c4:	e0bffd15 	stw	r2,-12(fp)
		if (status == 0 && byte == 0xAA)
    27c8:	e0bffd17 	ldw	r2,-12(fp)
    27cc:	10001a1e 	bne	r2,zero,2838 <alt_up_ps2_init+0xb0>
    27d0:	e0bffe03 	ldbu	r2,-8(fp)
    27d4:	10803fcc 	andi	r2,r2,255
    27d8:	10802a98 	cmpnei	r2,r2,170
    27dc:	1000161e 	bne	r2,zero,2838 <alt_up_ps2_init+0xb0>
		{
			//get the 2nd byte
			status = alt_up_ps2_read_data_byte_timeout(ps2, &byte);
    27e0:	e0bffe04 	addi	r2,fp,-8
    27e4:	100b883a 	mov	r5,r2
    27e8:	e13fff17 	ldw	r4,-4(fp)
    27ec:	0002a4c0 	call	2a4c <alt_up_ps2_read_data_byte_timeout>
    27f0:	e0bffd15 	stw	r2,-12(fp)
			if (status == -ETIMEDOUT)
    27f4:	e0bffd17 	ldw	r2,-12(fp)
    27f8:	10bfe318 	cmpnei	r2,r2,-116
    27fc:	1000041e 	bne	r2,zero,2810 <alt_up_ps2_init+0x88>
			{
				//for keyboard, only 2 bytes are sent(ACK, PASS/FAIL), so timeout
				ps2->device_type = PS2_KEYBOARD;
    2800:	e0bfff17 	ldw	r2,-4(fp)
    2804:	00c00044 	movi	r3,1
    2808:	10c00d15 	stw	r3,52(r2)
				ps2->device_type = PS2_MOUSE;
				(void) alt_up_ps2_write_data_byte (ps2, 0xf4); // enable data from mouse
			}
		}
	}
}
    280c:	00000a06 	br	2838 <alt_up_ps2_init+0xb0>
			if (status == -ETIMEDOUT)
			{
				//for keyboard, only 2 bytes are sent(ACK, PASS/FAIL), so timeout
				ps2->device_type = PS2_KEYBOARD;
			}
			else if (status == 0 && byte == 0x00)
    2810:	e0bffd17 	ldw	r2,-12(fp)
    2814:	1000081e 	bne	r2,zero,2838 <alt_up_ps2_init+0xb0>
    2818:	e0bffe03 	ldbu	r2,-8(fp)
    281c:	10803fcc 	andi	r2,r2,255
    2820:	1000051e 	bne	r2,zero,2838 <alt_up_ps2_init+0xb0>
			{
				//for mouse, it will sent out 0x00 after sending out ACK and PASS/FAIL.
				ps2->device_type = PS2_MOUSE;
    2824:	e0bfff17 	ldw	r2,-4(fp)
    2828:	10000d15 	stw	zero,52(r2)
				(void) alt_up_ps2_write_data_byte (ps2, 0xf4); // enable data from mouse
    282c:	01403d04 	movi	r5,244
    2830:	e13fff17 	ldw	r4,-4(fp)
    2834:	000290c0 	call	290c <alt_up_ps2_write_data_byte>
			}
		}
	}
}
    2838:	0001883a 	nop
    283c:	e037883a 	mov	sp,fp
    2840:	dfc00117 	ldw	ra,4(sp)
    2844:	df000017 	ldw	fp,0(sp)
    2848:	dec00204 	addi	sp,sp,8
    284c:	f800283a 	ret

00002850 <alt_up_ps2_enable_read_interrupt>:

void alt_up_ps2_enable_read_interrupt(alt_up_ps2_dev *ps2)
{
    2850:	defffd04 	addi	sp,sp,-12
    2854:	df000215 	stw	fp,8(sp)
    2858:	df000204 	addi	fp,sp,8
    285c:	e13fff15 	stw	r4,-4(fp)
	unsigned int ctrl_reg;
	ctrl_reg = IORD_ALT_UP_PS2_PORT_CTRL_REG(ps2->base); 
    2860:	e0bfff17 	ldw	r2,-4(fp)
    2864:	10800a17 	ldw	r2,40(r2)
    2868:	10800104 	addi	r2,r2,4
    286c:	10800037 	ldwio	r2,0(r2)
    2870:	e0bffe15 	stw	r2,-8(fp)
	// set RE to 1 while maintaining other bits the same
	ctrl_reg |= ALT_UP_PS2_PORT_CTRL_REG_RE_MSK;
    2874:	e0bffe17 	ldw	r2,-8(fp)
    2878:	10800054 	ori	r2,r2,1
    287c:	e0bffe15 	stw	r2,-8(fp)
	IOWR_ALT_UP_PS2_PORT_CTRL_REG(ps2->base, ctrl_reg);
    2880:	e0bfff17 	ldw	r2,-4(fp)
    2884:	10800a17 	ldw	r2,40(r2)
    2888:	10800104 	addi	r2,r2,4
    288c:	1007883a 	mov	r3,r2
    2890:	e0bffe17 	ldw	r2,-8(fp)
    2894:	18800035 	stwio	r2,0(r3)
}
    2898:	0001883a 	nop
    289c:	e037883a 	mov	sp,fp
    28a0:	df000017 	ldw	fp,0(sp)
    28a4:	dec00104 	addi	sp,sp,4
    28a8:	f800283a 	ret

000028ac <alt_up_ps2_disable_read_interrupt>:

void alt_up_ps2_disable_read_interrupt(alt_up_ps2_dev *ps2)
{
    28ac:	defffd04 	addi	sp,sp,-12
    28b0:	df000215 	stw	fp,8(sp)
    28b4:	df000204 	addi	fp,sp,8
    28b8:	e13fff15 	stw	r4,-4(fp)
	unsigned int ctrl_reg;
	ctrl_reg = IORD_ALT_UP_PS2_PORT_CTRL_REG(ps2->base); 
    28bc:	e0bfff17 	ldw	r2,-4(fp)
    28c0:	10800a17 	ldw	r2,40(r2)
    28c4:	10800104 	addi	r2,r2,4
    28c8:	10800037 	ldwio	r2,0(r2)
    28cc:	e0bffe15 	stw	r2,-8(fp)
	// set RE to 0 while maintaining other bits the same
	ctrl_reg &= ~ALT_UP_PS2_PORT_CTRL_REG_RE_MSK;
    28d0:	e0fffe17 	ldw	r3,-8(fp)
    28d4:	00bfff84 	movi	r2,-2
    28d8:	1884703a 	and	r2,r3,r2
    28dc:	e0bffe15 	stw	r2,-8(fp)
	IOWR_ALT_UP_PS2_PORT_CTRL_REG(ps2->base, ctrl_reg);
    28e0:	e0bfff17 	ldw	r2,-4(fp)
    28e4:	10800a17 	ldw	r2,40(r2)
    28e8:	10800104 	addi	r2,r2,4
    28ec:	1007883a 	mov	r3,r2
    28f0:	e0bffe17 	ldw	r2,-8(fp)
    28f4:	18800035 	stwio	r2,0(r3)
}
    28f8:	0001883a 	nop
    28fc:	e037883a 	mov	sp,fp
    2900:	df000017 	ldw	fp,0(sp)
    2904:	dec00104 	addi	sp,sp,4
    2908:	f800283a 	ret

0000290c <alt_up_ps2_write_data_byte>:

int alt_up_ps2_write_data_byte(alt_up_ps2_dev *ps2, unsigned char byte)
{
    290c:	defffb04 	addi	sp,sp,-20
    2910:	dfc00415 	stw	ra,16(sp)
    2914:	df000315 	stw	fp,12(sp)
    2918:	df000304 	addi	fp,sp,12
    291c:	e13ffe15 	stw	r4,-8(fp)
    2920:	2805883a 	mov	r2,r5
    2924:	e0bfff05 	stb	r2,-4(fp)
	//note: data are only located at the lower 8 bits
	//note: the software send command to the PS2 peripheral through the data
	//		register rather than the control register
	IOWR_ALT_UP_PS2_PORT_DATA(ps2->base, byte);
    2928:	e0bffe17 	ldw	r2,-8(fp)
    292c:	10800a17 	ldw	r2,40(r2)
    2930:	1007883a 	mov	r3,r2
    2934:	e0bfff03 	ldbu	r2,-4(fp)
    2938:	18800025 	stbio	r2,0(r3)
	alt_u32 ctrl_reg = IORD_ALT_UP_PS2_PORT_CTRL_REG(ps2->base);
    293c:	e0bffe17 	ldw	r2,-8(fp)
    2940:	10800a17 	ldw	r2,40(r2)
    2944:	10800104 	addi	r2,r2,4
    2948:	10800037 	ldwio	r2,0(r2)
    294c:	e0bffd15 	stw	r2,-12(fp)
	if (read_CE_bit(ctrl_reg))
    2950:	e13ffd17 	ldw	r4,-12(fp)
    2954:	00026c40 	call	26c4 <read_CE_bit>
    2958:	10803fcc 	andi	r2,r2,255
    295c:	10000226 	beq	r2,zero,2968 <alt_up_ps2_write_data_byte+0x5c>
	{
		//CE bit is set --> error occurs on sending commands
		return -EIO;
    2960:	00bffec4 	movi	r2,-5
    2964:	00000106 	br	296c <alt_up_ps2_write_data_byte+0x60>
	}
	return 0;
    2968:	0005883a 	mov	r2,zero
}
    296c:	e037883a 	mov	sp,fp
    2970:	dfc00117 	ldw	ra,4(sp)
    2974:	df000017 	ldw	fp,0(sp)
    2978:	dec00204 	addi	sp,sp,8
    297c:	f800283a 	ret

00002980 <alt_up_ps2_wait_for_ack>:

int alt_up_ps2_wait_for_ack(alt_up_ps2_dev *ps2)
{
    2980:	defffc04 	addi	sp,sp,-16
    2984:	dfc00315 	stw	ra,12(sp)
    2988:	df000215 	stw	fp,8(sp)
    298c:	df000204 	addi	fp,sp,8
    2990:	e13fff15 	stw	r4,-4(fp)
	unsigned char data = 0;
    2994:	e03ffe45 	stb	zero,-7(fp)
	unsigned char status = 0;
    2998:	e03ffe05 	stb	zero,-8(fp)
	do
	{
		status = alt_up_ps2_read_data_byte_timeout(ps2, &data); 
    299c:	e0bffe44 	addi	r2,fp,-7
    29a0:	100b883a 	mov	r5,r2
    29a4:	e13fff17 	ldw	r4,-4(fp)
    29a8:	0002a4c0 	call	2a4c <alt_up_ps2_read_data_byte_timeout>
    29ac:	e0bffe05 	stb	r2,-8(fp)
		if ( status == 0)
    29b0:	e0bffe03 	ldbu	r2,-8(fp)
    29b4:	1000061e 	bne	r2,zero,29d0 <alt_up_ps2_wait_for_ack+0x50>
		{
			if (data == PS2_ACK)
    29b8:	e0bffe43 	ldbu	r2,-7(fp)
    29bc:	10803fcc 	andi	r2,r2,255
    29c0:	10803e98 	cmpnei	r2,r2,250
    29c4:	103ff51e 	bne	r2,zero,299c <__alt_mem_VGA_Subsystem_Char_Buf_Subsystem_Onchip_SRAM+0xf700299c>
				return 0;
    29c8:	0005883a 	mov	r2,zero
    29cc:	00000106 	br	29d4 <alt_up_ps2_wait_for_ack+0x54>
		}
		else 
		{
			return status;
    29d0:	e0bffe03 	ldbu	r2,-8(fp)
		}
	} while(1);
	return -ETIMEDOUT;
}
    29d4:	e037883a 	mov	sp,fp
    29d8:	dfc00117 	ldw	ra,4(sp)
    29dc:	df000017 	ldw	fp,0(sp)
    29e0:	dec00204 	addi	sp,sp,8
    29e4:	f800283a 	ret

000029e8 <alt_up_ps2_write_data_byte_with_ack>:

int alt_up_ps2_write_data_byte_with_ack(alt_up_ps2_dev *ps2, unsigned char byte)
{
    29e8:	defffa04 	addi	sp,sp,-24
    29ec:	dfc00515 	stw	ra,20(sp)
    29f0:	df000415 	stw	fp,16(sp)
    29f4:	df000404 	addi	fp,sp,16
    29f8:	e13ffe15 	stw	r4,-8(fp)
    29fc:	2805883a 	mov	r2,r5
    2a00:	e0bfff05 	stb	r2,-4(fp)
	int send_status = alt_up_ps2_write_data_byte(ps2, byte);
    2a04:	e0bfff03 	ldbu	r2,-4(fp)
    2a08:	100b883a 	mov	r5,r2
    2a0c:	e13ffe17 	ldw	r4,-8(fp)
    2a10:	000290c0 	call	290c <alt_up_ps2_write_data_byte>
    2a14:	e0bffc15 	stw	r2,-16(fp)
	if ( send_status != 0)
    2a18:	e0bffc17 	ldw	r2,-16(fp)
    2a1c:	10000226 	beq	r2,zero,2a28 <alt_up_ps2_write_data_byte_with_ack+0x40>
		// return on sending error
		return send_status;
    2a20:	e0bffc17 	ldw	r2,-16(fp)
    2a24:	00000406 	br	2a38 <alt_up_ps2_write_data_byte_with_ack+0x50>

	int ack_status = alt_up_ps2_wait_for_ack(ps2);
    2a28:	e13ffe17 	ldw	r4,-8(fp)
    2a2c:	00029800 	call	2980 <alt_up_ps2_wait_for_ack>
    2a30:	e0bffd15 	stw	r2,-12(fp)
	return ack_status;
    2a34:	e0bffd17 	ldw	r2,-12(fp)
}
    2a38:	e037883a 	mov	sp,fp
    2a3c:	dfc00117 	ldw	ra,4(sp)
    2a40:	df000017 	ldw	fp,0(sp)
    2a44:	dec00204 	addi	sp,sp,8
    2a48:	f800283a 	ret

00002a4c <alt_up_ps2_read_data_byte_timeout>:

int alt_up_ps2_read_data_byte_timeout(alt_up_ps2_dev *ps2, unsigned char *byte)
{
    2a4c:	defffa04 	addi	sp,sp,-24
    2a50:	dfc00515 	stw	ra,20(sp)
    2a54:	df000415 	stw	fp,16(sp)
    2a58:	df000404 	addi	fp,sp,16
    2a5c:	e13ffe15 	stw	r4,-8(fp)
    2a60:	e17fff15 	stw	r5,-4(fp)
	unsigned int data_reg = 0; 
    2a64:	e03ffd15 	stw	zero,-12(fp)
	unsigned int count = 0;
    2a68:	e03ffc15 	stw	zero,-16(fp)
	do {
		count++;
    2a6c:	e0bffc17 	ldw	r2,-16(fp)
    2a70:	10800044 	addi	r2,r2,1
    2a74:	e0bffc15 	stw	r2,-16(fp)
		data_reg = IORD_ALT_UP_PS2_PORT_DATA_REG(ps2->base);
    2a78:	e0bffe17 	ldw	r2,-8(fp)
    2a7c:	10800a17 	ldw	r2,40(r2)
    2a80:	10800037 	ldwio	r2,0(r2)
    2a84:	e0bffd15 	stw	r2,-12(fp)
		if (read_data_valid(data_reg))
    2a88:	e13ffd17 	ldw	r4,-12(fp)
    2a8c:	00027280 	call	2728 <read_data_valid>
    2a90:	10803fcc 	andi	r2,r2,255
    2a94:	10000726 	beq	r2,zero,2ab4 <alt_up_ps2_read_data_byte_timeout+0x68>
		{
			*byte = read_data_byte(data_reg);
    2a98:	e13ffd17 	ldw	r4,-12(fp)
    2a9c:	000275c0 	call	275c <read_data_byte>
    2aa0:	1007883a 	mov	r3,r2
    2aa4:	e0bfff17 	ldw	r2,-4(fp)
    2aa8:	10c00005 	stb	r3,0(r2)
			return 0;
    2aac:	0005883a 	mov	r2,zero
    2ab0:	00000806 	br	2ad4 <alt_up_ps2_read_data_byte_timeout+0x88>
		}
		//timeout = 0 means to disable the timeout
		if ( ps2->timeout != 0 && count > ps2->timeout)
    2ab4:	e0bffe17 	ldw	r2,-8(fp)
    2ab8:	10800c17 	ldw	r2,48(r2)
    2abc:	103feb26 	beq	r2,zero,2a6c <__alt_mem_VGA_Subsystem_Char_Buf_Subsystem_Onchip_SRAM+0xf7002a6c>
    2ac0:	e0bffe17 	ldw	r2,-8(fp)
    2ac4:	10c00c17 	ldw	r3,48(r2)
    2ac8:	e0bffc17 	ldw	r2,-16(fp)
    2acc:	18bfe72e 	bgeu	r3,r2,2a6c <__alt_mem_VGA_Subsystem_Char_Buf_Subsystem_Onchip_SRAM+0xf7002a6c>
		{
			return -ETIMEDOUT;
    2ad0:	00bfe304 	movi	r2,-116
		}
	} while (1);
}
    2ad4:	e037883a 	mov	sp,fp
    2ad8:	dfc00117 	ldw	ra,4(sp)
    2adc:	df000017 	ldw	fp,0(sp)
    2ae0:	dec00204 	addi	sp,sp,8
    2ae4:	f800283a 	ret

00002ae8 <alt_up_ps2_read_data_byte>:

int alt_up_ps2_read_data_byte(alt_up_ps2_dev *ps2, unsigned char *byte)
{
    2ae8:	defffb04 	addi	sp,sp,-20
    2aec:	dfc00415 	stw	ra,16(sp)
    2af0:	df000315 	stw	fp,12(sp)
    2af4:	df000304 	addi	fp,sp,12
    2af8:	e13ffe15 	stw	r4,-8(fp)
    2afc:	e17fff15 	stw	r5,-4(fp)
	unsigned int data_reg = 0; 
    2b00:	e03ffd15 	stw	zero,-12(fp)
	data_reg = IORD_ALT_UP_PS2_PORT_DATA_REG(ps2->base);
    2b04:	e0bffe17 	ldw	r2,-8(fp)
    2b08:	10800a17 	ldw	r2,40(r2)
    2b0c:	10800037 	ldwio	r2,0(r2)
    2b10:	e0bffd15 	stw	r2,-12(fp)
	if (read_data_valid(data_reg))
    2b14:	e13ffd17 	ldw	r4,-12(fp)
    2b18:	00027280 	call	2728 <read_data_valid>
    2b1c:	10803fcc 	andi	r2,r2,255
    2b20:	10000726 	beq	r2,zero,2b40 <alt_up_ps2_read_data_byte+0x58>
	{
		*byte = read_data_byte(data_reg);
    2b24:	e13ffd17 	ldw	r4,-12(fp)
    2b28:	000275c0 	call	275c <read_data_byte>
    2b2c:	1007883a 	mov	r3,r2
    2b30:	e0bfff17 	ldw	r2,-4(fp)
    2b34:	10c00005 	stb	r3,0(r2)
		return 0;
    2b38:	0005883a 	mov	r2,zero
    2b3c:	00000106 	br	2b44 <alt_up_ps2_read_data_byte+0x5c>
	}
	return -1;
    2b40:	00bfffc4 	movi	r2,-1
}
    2b44:	e037883a 	mov	sp,fp
    2b48:	dfc00117 	ldw	ra,4(sp)
    2b4c:	df000017 	ldw	fp,0(sp)
    2b50:	dec00204 	addi	sp,sp,8
    2b54:	f800283a 	ret

00002b58 <alt_up_ps2_clear_fifo>:

void alt_up_ps2_clear_fifo(alt_up_ps2_dev *ps2)
{
    2b58:	defffb04 	addi	sp,sp,-20
    2b5c:	dfc00415 	stw	ra,16(sp)
    2b60:	df000315 	stw	fp,12(sp)
    2b64:	df000304 	addi	fp,sp,12
    2b68:	e13fff15 	stw	r4,-4(fp)
	// The DATA byte of the data register will be automatically cleared after a read
	// So we simply keep reading it until there are no available bytes
	alt_u16 num = 0;
    2b6c:	e03ffd0d 	sth	zero,-12(fp)
	unsigned int data_reg = 0;
    2b70:	e03ffe15 	stw	zero,-8(fp)
	do
	{
		// read the data register (the DATA byte is cleared)
		data_reg = IORD_ALT_UP_PS2_PORT_DATA_REG(ps2->base);
    2b74:	e0bfff17 	ldw	r2,-4(fp)
    2b78:	10800a17 	ldw	r2,40(r2)
    2b7c:	10800037 	ldwio	r2,0(r2)
    2b80:	e0bffe15 	stw	r2,-8(fp)
		// get the number of available bytes from the RAVAIL part of data register
		num = read_num_bytes_available(data_reg);
    2b84:	e13ffe17 	ldw	r4,-8(fp)
    2b88:	00026f80 	call	26f8 <read_num_bytes_available>
    2b8c:	e0bffd0d 	sth	r2,-12(fp)
	} while (num > 0);
    2b90:	e0bffd0b 	ldhu	r2,-12(fp)
    2b94:	103ff71e 	bne	r2,zero,2b74 <__alt_mem_VGA_Subsystem_Char_Buf_Subsystem_Onchip_SRAM+0xf7002b74>
}
    2b98:	0001883a 	nop
    2b9c:	e037883a 	mov	sp,fp
    2ba0:	dfc00117 	ldw	ra,4(sp)
    2ba4:	df000017 	ldw	fp,0(sp)
    2ba8:	dec00204 	addi	sp,sp,8
    2bac:	f800283a 	ret

00002bb0 <alt_up_ps2_read_fd>:

//////////////////////////////////////////////////////////////
// FD Functions
int alt_up_ps2_read_fd (alt_fd* fd, char* ptr, int len)
{
    2bb0:	defff804 	addi	sp,sp,-32
    2bb4:	dfc00715 	stw	ra,28(sp)
    2bb8:	df000615 	stw	fp,24(sp)
    2bbc:	df000604 	addi	fp,sp,24
    2bc0:	e13ffd15 	stw	r4,-12(fp)
    2bc4:	e17ffe15 	stw	r5,-8(fp)
    2bc8:	e1bfff15 	stw	r6,-4(fp)
	alt_up_ps2_dev *ps2 = (alt_up_ps2_dev*) fd->dev;
    2bcc:	e0bffd17 	ldw	r2,-12(fp)
    2bd0:	10800017 	ldw	r2,0(r2)
    2bd4:	e0bffa15 	stw	r2,-24(fp)
	int status = 0;
    2bd8:	e03ffb15 	stw	zero,-20(fp)
	int count = 0;
    2bdc:	e03ffc15 	stw	zero,-16(fp)
	while (count < len);
    2be0:	e0fffc17 	ldw	r3,-16(fp)
    2be4:	e0bfff17 	ldw	r2,-4(fp)
    2be8:	18bffd16 	blt	r3,r2,2be0 <__alt_mem_VGA_Subsystem_Char_Buf_Subsystem_Onchip_SRAM+0xf7002be0>
	{
		status = alt_up_ps2_read_data_byte_timeout(ps2, (unsigned char *)ptr++);
    2bec:	e0bffe17 	ldw	r2,-8(fp)
    2bf0:	10c00044 	addi	r3,r2,1
    2bf4:	e0fffe15 	stw	r3,-8(fp)
    2bf8:	100b883a 	mov	r5,r2
    2bfc:	e13ffa17 	ldw	r4,-24(fp)
    2c00:	0002a4c0 	call	2a4c <alt_up_ps2_read_data_byte_timeout>
    2c04:	e0bffb15 	stw	r2,-20(fp)
		if (status!=0)
    2c08:	e0bffb17 	ldw	r2,-20(fp)
    2c0c:	10000226 	beq	r2,zero,2c18 <alt_up_ps2_read_fd+0x68>
			return count;
    2c10:	e0bffc17 	ldw	r2,-16(fp)
    2c14:	00000406 	br	2c28 <alt_up_ps2_read_fd+0x78>
		count++;
    2c18:	e0bffc17 	ldw	r2,-16(fp)
    2c1c:	10800044 	addi	r2,r2,1
    2c20:	e0bffc15 	stw	r2,-16(fp)
	} 
	return count;
    2c24:	e0bffc17 	ldw	r2,-16(fp)
}
    2c28:	e037883a 	mov	sp,fp
    2c2c:	dfc00117 	ldw	ra,4(sp)
    2c30:	df000017 	ldw	fp,0(sp)
    2c34:	dec00204 	addi	sp,sp,8
    2c38:	f800283a 	ret

00002c3c <alt_up_ps2_write_fd>:

int alt_up_ps2_write_fd (alt_fd* fd, const char* ptr, int len)
{
    2c3c:	defff804 	addi	sp,sp,-32
    2c40:	dfc00715 	stw	ra,28(sp)
    2c44:	df000615 	stw	fp,24(sp)
    2c48:	df000604 	addi	fp,sp,24
    2c4c:	e13ffd15 	stw	r4,-12(fp)
    2c50:	e17ffe15 	stw	r5,-8(fp)
    2c54:	e1bfff15 	stw	r6,-4(fp)
	alt_up_ps2_dev *ps2 = (alt_up_ps2_dev*) fd->dev;
    2c58:	e0bffd17 	ldw	r2,-12(fp)
    2c5c:	10800017 	ldw	r2,0(r2)
    2c60:	e0bffb15 	stw	r2,-20(fp)
	int status = 0;
    2c64:	e03ffc15 	stw	zero,-16(fp)
	int count = 0;
    2c68:	e03ffa15 	stw	zero,-24(fp)
	while (count < len)
    2c6c:	00001006 	br	2cb0 <alt_up_ps2_write_fd+0x74>
	{
		status = alt_up_ps2_write_data_byte(ps2, *(ptr++) );
    2c70:	e0bffe17 	ldw	r2,-8(fp)
    2c74:	10c00044 	addi	r3,r2,1
    2c78:	e0fffe15 	stw	r3,-8(fp)
    2c7c:	10800003 	ldbu	r2,0(r2)
    2c80:	10803fcc 	andi	r2,r2,255
    2c84:	100b883a 	mov	r5,r2
    2c88:	e13ffb17 	ldw	r4,-20(fp)
    2c8c:	000290c0 	call	290c <alt_up_ps2_write_data_byte>
    2c90:	e0bffc15 	stw	r2,-16(fp)
		if (status!=0)
    2c94:	e0bffc17 	ldw	r2,-16(fp)
    2c98:	10000226 	beq	r2,zero,2ca4 <alt_up_ps2_write_fd+0x68>
			return count;
    2c9c:	e0bffa17 	ldw	r2,-24(fp)
    2ca0:	00000706 	br	2cc0 <alt_up_ps2_write_fd+0x84>
		count++;
    2ca4:	e0bffa17 	ldw	r2,-24(fp)
    2ca8:	10800044 	addi	r2,r2,1
    2cac:	e0bffa15 	stw	r2,-24(fp)
int alt_up_ps2_write_fd (alt_fd* fd, const char* ptr, int len)
{
	alt_up_ps2_dev *ps2 = (alt_up_ps2_dev*) fd->dev;
	int status = 0;
	int count = 0;
	while (count < len)
    2cb0:	e0fffa17 	ldw	r3,-24(fp)
    2cb4:	e0bfff17 	ldw	r2,-4(fp)
    2cb8:	18bfed16 	blt	r3,r2,2c70 <__alt_mem_VGA_Subsystem_Char_Buf_Subsystem_Onchip_SRAM+0xf7002c70>
		status = alt_up_ps2_write_data_byte(ps2, *(ptr++) );
		if (status!=0)
			return count;
		count++;
	}
	return count;
    2cbc:	e0bffa17 	ldw	r2,-24(fp)
}
    2cc0:	e037883a 	mov	sp,fp
    2cc4:	dfc00117 	ldw	ra,4(sp)
    2cc8:	df000017 	ldw	fp,0(sp)
    2ccc:	dec00204 	addi	sp,sp,8
    2cd0:	f800283a 	ret

00002cd4 <alt_up_ps2_open_dev>:

alt_up_ps2_dev* alt_up_ps2_open_dev(const char* name)
{
    2cd4:	defffc04 	addi	sp,sp,-16
    2cd8:	dfc00315 	stw	ra,12(sp)
    2cdc:	df000215 	stw	fp,8(sp)
    2ce0:	df000204 	addi	fp,sp,8
    2ce4:	e13fff15 	stw	r4,-4(fp)
  // find the device from the device list 
  // (see altera_hal/HAL/inc/priv/alt_file.h 
  // and altera_hal/HAL/src/alt_find_dev.c 
  // for details)
  alt_up_ps2_dev *dev = (alt_up_ps2_dev*)alt_find_dev(name, &alt_dev_list);
    2ce8:	01400034 	movhi	r5,0
    2cec:	29577104 	addi	r5,r5,24004
    2cf0:	e13fff17 	ldw	r4,-4(fp)
    2cf4:	00035080 	call	3508 <alt_find_dev>
    2cf8:	e0bffe15 	stw	r2,-8(fp)

  return dev;
    2cfc:	e0bffe17 	ldw	r2,-8(fp)
}
    2d00:	e037883a 	mov	sp,fp
    2d04:	dfc00117 	ldw	ra,4(sp)
    2d08:	df000017 	ldw	fp,0(sp)
    2d0c:	dec00204 	addi	sp,sp,8
    2d10:	f800283a 	ret

00002d14 <alt_up_rs232_enable_read_interrupt>:
#include "altera_up_avalon_rs232.h"
#include "altera_up_avalon_rs232_regs.h"


void alt_up_rs232_enable_read_interrupt(alt_up_rs232_dev *rs232)
{
    2d14:	defffd04 	addi	sp,sp,-12
    2d18:	df000215 	stw	fp,8(sp)
    2d1c:	df000204 	addi	fp,sp,8
    2d20:	e13fff15 	stw	r4,-4(fp)
	alt_u32 ctrl_reg;
	ctrl_reg = IORD_ALT_UP_RS232_CONTROL(rs232->base); 
    2d24:	e0bfff17 	ldw	r2,-4(fp)
    2d28:	10800a17 	ldw	r2,40(r2)
    2d2c:	10800104 	addi	r2,r2,4
    2d30:	10800037 	ldwio	r2,0(r2)
    2d34:	e0bffe15 	stw	r2,-8(fp)
	// set RE to 1 while maintaining other bits the same
	ctrl_reg |= ALT_UP_RS232_CONTROL_RE_MSK;
    2d38:	e0bffe17 	ldw	r2,-8(fp)
    2d3c:	10800054 	ori	r2,r2,1
    2d40:	e0bffe15 	stw	r2,-8(fp)
	IOWR_ALT_UP_RS232_CONTROL(rs232->base, ctrl_reg);
    2d44:	e0bfff17 	ldw	r2,-4(fp)
    2d48:	10800a17 	ldw	r2,40(r2)
    2d4c:	10800104 	addi	r2,r2,4
    2d50:	1007883a 	mov	r3,r2
    2d54:	e0bffe17 	ldw	r2,-8(fp)
    2d58:	18800035 	stwio	r2,0(r3)
}
    2d5c:	0001883a 	nop
    2d60:	e037883a 	mov	sp,fp
    2d64:	df000017 	ldw	fp,0(sp)
    2d68:	dec00104 	addi	sp,sp,4
    2d6c:	f800283a 	ret

00002d70 <alt_up_rs232_disable_read_interrupt>:

void alt_up_rs232_disable_read_interrupt(alt_up_rs232_dev *rs232)
{
    2d70:	defffd04 	addi	sp,sp,-12
    2d74:	df000215 	stw	fp,8(sp)
    2d78:	df000204 	addi	fp,sp,8
    2d7c:	e13fff15 	stw	r4,-4(fp)
	alt_u32 ctrl_reg;
	ctrl_reg = IORD_ALT_UP_RS232_CONTROL(rs232->base); 
    2d80:	e0bfff17 	ldw	r2,-4(fp)
    2d84:	10800a17 	ldw	r2,40(r2)
    2d88:	10800104 	addi	r2,r2,4
    2d8c:	10800037 	ldwio	r2,0(r2)
    2d90:	e0bffe15 	stw	r2,-8(fp)
	// set RE to 0 while maintaining other bits the same
	ctrl_reg &= ~ALT_UP_RS232_CONTROL_RE_MSK;
    2d94:	e0fffe17 	ldw	r3,-8(fp)
    2d98:	00bfff84 	movi	r2,-2
    2d9c:	1884703a 	and	r2,r3,r2
    2da0:	e0bffe15 	stw	r2,-8(fp)
	IOWR_ALT_UP_RS232_CONTROL(rs232->base, ctrl_reg);
    2da4:	e0bfff17 	ldw	r2,-4(fp)
    2da8:	10800a17 	ldw	r2,40(r2)
    2dac:	10800104 	addi	r2,r2,4
    2db0:	1007883a 	mov	r3,r2
    2db4:	e0bffe17 	ldw	r2,-8(fp)
    2db8:	18800035 	stwio	r2,0(r3)
}
    2dbc:	0001883a 	nop
    2dc0:	e037883a 	mov	sp,fp
    2dc4:	df000017 	ldw	fp,0(sp)
    2dc8:	dec00104 	addi	sp,sp,4
    2dcc:	f800283a 	ret

00002dd0 <alt_up_rs232_get_used_space_in_read_FIFO>:

unsigned alt_up_rs232_get_used_space_in_read_FIFO(alt_up_rs232_dev *rs232)
{
    2dd0:	defffd04 	addi	sp,sp,-12
    2dd4:	df000215 	stw	fp,8(sp)
    2dd8:	df000204 	addi	fp,sp,8
    2ddc:	e13fff15 	stw	r4,-4(fp)
	alt_u16 ravail = 0;
    2de0:	e03ffe0d 	sth	zero,-8(fp)
	// we can only read the 16 bits for RAVAIL --- a read of DATA will discard the data
//	ravail = IORD_16DIRECT(IOADDR_ALT_UP_RS232_DATA(rs232->base), 2); 
	ravail = IORD_ALT_UP_RS232_RAVAIL(rs232->base); 
    2de4:	e0bfff17 	ldw	r2,-4(fp)
    2de8:	10800a17 	ldw	r2,40(r2)
    2dec:	10800084 	addi	r2,r2,2
    2df0:	1080002b 	ldhuio	r2,0(r2)
    2df4:	10bfffcc 	andi	r2,r2,65535
    2df8:	e0bffe0d 	sth	r2,-8(fp)
//	return ravail;
	return (ravail & ALT_UP_RS232_RAVAIL_MSK) >> ALT_UP_RS232_RAVAIL_OFST;
    2dfc:	e0bffe0b 	ldhu	r2,-8(fp)
}
    2e00:	e037883a 	mov	sp,fp
    2e04:	df000017 	ldw	fp,0(sp)
    2e08:	dec00104 	addi	sp,sp,4
    2e0c:	f800283a 	ret

00002e10 <alt_up_rs232_get_available_space_in_write_FIFO>:

unsigned alt_up_rs232_get_available_space_in_write_FIFO(alt_up_rs232_dev *rs232)
{
    2e10:	defffd04 	addi	sp,sp,-12
    2e14:	df000215 	stw	fp,8(sp)
    2e18:	df000204 	addi	fp,sp,8
    2e1c:	e13fff15 	stw	r4,-4(fp)
	alt_u32 ctrl_reg;
	ctrl_reg = IORD_ALT_UP_RS232_CONTROL(rs232->base); 
    2e20:	e0bfff17 	ldw	r2,-4(fp)
    2e24:	10800a17 	ldw	r2,40(r2)
    2e28:	10800104 	addi	r2,r2,4
    2e2c:	10800037 	ldwio	r2,0(r2)
    2e30:	e0bffe15 	stw	r2,-8(fp)
	return (ctrl_reg & ALT_UP_RS232_CONTROL_WSPACE_MSK) >> ALT_UP_RS232_CONTROL_WSPACE_OFST;
    2e34:	e0bffe17 	ldw	r2,-8(fp)
    2e38:	1004d43a 	srli	r2,r2,16
}
    2e3c:	e037883a 	mov	sp,fp
    2e40:	df000017 	ldw	fp,0(sp)
    2e44:	dec00104 	addi	sp,sp,4
    2e48:	f800283a 	ret

00002e4c <alt_up_rs232_check_parity>:

int alt_up_rs232_check_parity(alt_u32 data_reg)
{
    2e4c:	defffd04 	addi	sp,sp,-12
    2e50:	df000215 	stw	fp,8(sp)
    2e54:	df000204 	addi	fp,sp,8
    2e58:	e13fff15 	stw	r4,-4(fp)
	unsigned parity_error = (data_reg & ALT_UP_RS232_DATA_PE_MSK) >> ALT_UP_RS232_DATA_PE_OFST;
    2e5c:	e0bfff17 	ldw	r2,-4(fp)
    2e60:	1080800c 	andi	r2,r2,512
    2e64:	1004d27a 	srli	r2,r2,9
    2e68:	e0bffe15 	stw	r2,-8(fp)
	return (parity_error ? -1 : 0);
    2e6c:	e0bffe17 	ldw	r2,-8(fp)
    2e70:	10000226 	beq	r2,zero,2e7c <alt_up_rs232_check_parity+0x30>
    2e74:	00bfffc4 	movi	r2,-1
    2e78:	00000106 	br	2e80 <alt_up_rs232_check_parity+0x34>
    2e7c:	0005883a 	mov	r2,zero
}
    2e80:	e037883a 	mov	sp,fp
    2e84:	df000017 	ldw	fp,0(sp)
    2e88:	dec00104 	addi	sp,sp,4
    2e8c:	f800283a 	ret

00002e90 <alt_up_rs232_write_data>:

int alt_up_rs232_write_data(alt_up_rs232_dev *rs232, alt_u8 data)
{
    2e90:	defffd04 	addi	sp,sp,-12
    2e94:	df000215 	stw	fp,8(sp)
    2e98:	df000204 	addi	fp,sp,8
    2e9c:	e13ffe15 	stw	r4,-8(fp)
    2ea0:	2805883a 	mov	r2,r5
    2ea4:	e0bfff05 	stb	r2,-4(fp)
	/*alt_u32 data_reg;
	data_reg = IORD_ALT_UP_RS232_DATA(rs232->base);*/
    
	// we can write directly without thinking about other bit fields for this
	// case ONLY, because only DATA field of the data register is writable
	IOWR_ALT_UP_RS232_DATA(rs232->base, (data>>ALT_UP_RS232_DATA_DATA_OFST) & ALT_UP_RS232_DATA_DATA_MSK);
    2ea8:	e0bffe17 	ldw	r2,-8(fp)
    2eac:	10800a17 	ldw	r2,40(r2)
    2eb0:	1007883a 	mov	r3,r2
    2eb4:	e0bfff03 	ldbu	r2,-4(fp)
    2eb8:	18800035 	stwio	r2,0(r3)
	return 0;
    2ebc:	0005883a 	mov	r2,zero
}
    2ec0:	e037883a 	mov	sp,fp
    2ec4:	df000017 	ldw	fp,0(sp)
    2ec8:	dec00104 	addi	sp,sp,4
    2ecc:	f800283a 	ret

00002ed0 <alt_up_rs232_read_data>:

int alt_up_rs232_read_data(alt_up_rs232_dev *rs232, alt_u8 *data, alt_u8 *parity_error)
{
    2ed0:	defffa04 	addi	sp,sp,-24
    2ed4:	dfc00515 	stw	ra,20(sp)
    2ed8:	df000415 	stw	fp,16(sp)
    2edc:	df000404 	addi	fp,sp,16
    2ee0:	e13ffd15 	stw	r4,-12(fp)
    2ee4:	e17ffe15 	stw	r5,-8(fp)
    2ee8:	e1bfff15 	stw	r6,-4(fp)
	alt_u32 data_reg;
	data_reg = IORD_ALT_UP_RS232_DATA(rs232->base);
    2eec:	e0bffd17 	ldw	r2,-12(fp)
    2ef0:	10800a17 	ldw	r2,40(r2)
    2ef4:	10800037 	ldwio	r2,0(r2)
    2ef8:	e0bffc15 	stw	r2,-16(fp)
	*data = (data_reg & ALT_UP_RS232_DATA_DATA_MSK) >> ALT_UP_RS232_DATA_DATA_OFST;
    2efc:	e0bffc17 	ldw	r2,-16(fp)
    2f00:	1007883a 	mov	r3,r2
    2f04:	e0bffe17 	ldw	r2,-8(fp)
    2f08:	10c00005 	stb	r3,0(r2)
	*parity_error = alt_up_rs232_check_parity(data_reg);
    2f0c:	e13ffc17 	ldw	r4,-16(fp)
    2f10:	0002e4c0 	call	2e4c <alt_up_rs232_check_parity>
    2f14:	1007883a 	mov	r3,r2
    2f18:	e0bfff17 	ldw	r2,-4(fp)
    2f1c:	10c00005 	stb	r3,0(r2)
	return (((data_reg & ALT_UP_RS232_DATA_RVALID_MSK) >> ALT_UP_RS232_DATA_RVALID_OFST) - 1);
    2f20:	e0bffc17 	ldw	r2,-16(fp)
    2f24:	10a0000c 	andi	r2,r2,32768
    2f28:	1004d3fa 	srli	r2,r2,15
    2f2c:	10bfffc4 	addi	r2,r2,-1
}
    2f30:	e037883a 	mov	sp,fp
    2f34:	dfc00117 	ldw	ra,4(sp)
    2f38:	df000017 	ldw	fp,0(sp)
    2f3c:	dec00204 	addi	sp,sp,8
    2f40:	f800283a 	ret

00002f44 <alt_up_rs232_read_fd>:

int alt_up_rs232_read_fd (alt_fd* fd, char* ptr, int len)
{
    2f44:	defff804 	addi	sp,sp,-32
    2f48:	dfc00715 	stw	ra,28(sp)
    2f4c:	df000615 	stw	fp,24(sp)
    2f50:	df000604 	addi	fp,sp,24
    2f54:	e13ffd15 	stw	r4,-12(fp)
    2f58:	e17ffe15 	stw	r5,-8(fp)
    2f5c:	e1bfff15 	stw	r6,-4(fp)
	alt_up_rs232_dev *rs232 = (alt_up_rs232_dev*)fd->dev;
    2f60:	e0bffd17 	ldw	r2,-12(fp)
    2f64:	10800017 	ldw	r2,0(r2)
    2f68:	e0bffb15 	stw	r2,-20(fp)
	int count = 0;
    2f6c:	e03ffa15 	stw	zero,-24(fp)
	alt_u8 parity_error;
	while(len--)
    2f70:	00000c06 	br	2fa4 <alt_up_rs232_read_fd+0x60>
	{
		if (alt_up_rs232_read_data(rs232, (alt_u8 *)ptr++, &parity_error)==0)
    2f74:	e0bffe17 	ldw	r2,-8(fp)
    2f78:	10c00044 	addi	r3,r2,1
    2f7c:	e0fffe15 	stw	r3,-8(fp)
    2f80:	e0fffc04 	addi	r3,fp,-16
    2f84:	180d883a 	mov	r6,r3
    2f88:	100b883a 	mov	r5,r2
    2f8c:	e13ffb17 	ldw	r4,-20(fp)
    2f90:	0002ed00 	call	2ed0 <alt_up_rs232_read_data>
    2f94:	1000081e 	bne	r2,zero,2fb8 <alt_up_rs232_read_fd+0x74>
			count++;
    2f98:	e0bffa17 	ldw	r2,-24(fp)
    2f9c:	10800044 	addi	r2,r2,1
    2fa0:	e0bffa15 	stw	r2,-24(fp)
int alt_up_rs232_read_fd (alt_fd* fd, char* ptr, int len)
{
	alt_up_rs232_dev *rs232 = (alt_up_rs232_dev*)fd->dev;
	int count = 0;
	alt_u8 parity_error;
	while(len--)
    2fa4:	e0bfff17 	ldw	r2,-4(fp)
    2fa8:	10ffffc4 	addi	r3,r2,-1
    2fac:	e0ffff15 	stw	r3,-4(fp)
    2fb0:	103ff01e 	bne	r2,zero,2f74 <__alt_mem_VGA_Subsystem_Char_Buf_Subsystem_Onchip_SRAM+0xf7002f74>
    2fb4:	00000106 	br	2fbc <alt_up_rs232_read_fd+0x78>
	{
		if (alt_up_rs232_read_data(rs232, (alt_u8 *)ptr++, &parity_error)==0)
			count++;
		else
			break;
    2fb8:	0001883a 	nop
	}
	return count;
    2fbc:	e0bffa17 	ldw	r2,-24(fp)
}
    2fc0:	e037883a 	mov	sp,fp
    2fc4:	dfc00117 	ldw	ra,4(sp)
    2fc8:	df000017 	ldw	fp,0(sp)
    2fcc:	dec00204 	addi	sp,sp,8
    2fd0:	f800283a 	ret

00002fd4 <alt_up_rs232_write_fd>:

int alt_up_rs232_write_fd (alt_fd* fd, const char* ptr, int len)
{
    2fd4:	defff904 	addi	sp,sp,-28
    2fd8:	dfc00615 	stw	ra,24(sp)
    2fdc:	df000515 	stw	fp,20(sp)
    2fe0:	df000504 	addi	fp,sp,20
    2fe4:	e13ffd15 	stw	r4,-12(fp)
    2fe8:	e17ffe15 	stw	r5,-8(fp)
    2fec:	e1bfff15 	stw	r6,-4(fp)
	alt_up_rs232_dev *rs232 = (alt_up_rs232_dev*)fd->dev;
    2ff0:	e0bffd17 	ldw	r2,-12(fp)
    2ff4:	10800017 	ldw	r2,0(r2)
    2ff8:	e0bffc15 	stw	r2,-16(fp)
	int count = 0;
    2ffc:	e03ffb15 	stw	zero,-20(fp)
	while(len--)
    3000:	00000d06 	br	3038 <alt_up_rs232_write_fd+0x64>
	{
		if (alt_up_rs232_write_data(rs232, *ptr)==0)
    3004:	e0bffe17 	ldw	r2,-8(fp)
    3008:	10800003 	ldbu	r2,0(r2)
    300c:	10803fcc 	andi	r2,r2,255
    3010:	100b883a 	mov	r5,r2
    3014:	e13ffc17 	ldw	r4,-16(fp)
    3018:	0002e900 	call	2e90 <alt_up_rs232_write_data>
    301c:	10000b1e 	bne	r2,zero,304c <alt_up_rs232_write_fd+0x78>
		{
			count++;
    3020:	e0bffb17 	ldw	r2,-20(fp)
    3024:	10800044 	addi	r2,r2,1
    3028:	e0bffb15 	stw	r2,-20(fp)
			ptr++;
    302c:	e0bffe17 	ldw	r2,-8(fp)
    3030:	10800044 	addi	r2,r2,1
    3034:	e0bffe15 	stw	r2,-8(fp)

int alt_up_rs232_write_fd (alt_fd* fd, const char* ptr, int len)
{
	alt_up_rs232_dev *rs232 = (alt_up_rs232_dev*)fd->dev;
	int count = 0;
	while(len--)
    3038:	e0bfff17 	ldw	r2,-4(fp)
    303c:	10ffffc4 	addi	r3,r2,-1
    3040:	e0ffff15 	stw	r3,-4(fp)
    3044:	103fef1e 	bne	r2,zero,3004 <__alt_mem_VGA_Subsystem_Char_Buf_Subsystem_Onchip_SRAM+0xf7003004>
    3048:	00000106 	br	3050 <alt_up_rs232_write_fd+0x7c>
		{
			count++;
			ptr++;
		}
		else
			break;
    304c:	0001883a 	nop
	}
	return count;
    3050:	e0bffb17 	ldw	r2,-20(fp)
}
    3054:	e037883a 	mov	sp,fp
    3058:	dfc00117 	ldw	ra,4(sp)
    305c:	df000017 	ldw	fp,0(sp)
    3060:	dec00204 	addi	sp,sp,8
    3064:	f800283a 	ret

00003068 <alt_up_rs232_open_dev>:

alt_up_rs232_dev* alt_up_rs232_open_dev(const char* name)
{
    3068:	defffc04 	addi	sp,sp,-16
    306c:	dfc00315 	stw	ra,12(sp)
    3070:	df000215 	stw	fp,8(sp)
    3074:	df000204 	addi	fp,sp,8
    3078:	e13fff15 	stw	r4,-4(fp)
  // find the device from the device list 
  // (see altera_hal/HAL/inc/priv/alt_file.h 
  // and altera_hal/HAL/src/alt_find_dev.c 
  // for details)
  alt_up_rs232_dev *dev = (alt_up_rs232_dev*)alt_find_dev(name, &alt_dev_list);
    307c:	01400034 	movhi	r5,0
    3080:	29577104 	addi	r5,r5,24004
    3084:	e13fff17 	ldw	r4,-4(fp)
    3088:	00035080 	call	3508 <alt_find_dev>
    308c:	e0bffe15 	stw	r2,-8(fp)

  return dev;
    3090:	e0bffe17 	ldw	r2,-8(fp)
}
    3094:	e037883a 	mov	sp,fp
    3098:	dfc00117 	ldw	ra,4(sp)
    309c:	df000017 	ldw	fp,0(sp)
    30a0:	dec00204 	addi	sp,sp,8
    30a4:	f800283a 	ret

000030a8 <alt_alarm_start>:
 */ 

int alt_alarm_start (alt_alarm* alarm, alt_u32 nticks,
                     alt_u32 (*callback) (void* context),
                     void* context)
{
    30a8:	defff504 	addi	sp,sp,-44
    30ac:	df000a15 	stw	fp,40(sp)
    30b0:	df000a04 	addi	fp,sp,40
    30b4:	e13ffc15 	stw	r4,-16(fp)
    30b8:	e17ffd15 	stw	r5,-12(fp)
    30bc:	e1bffe15 	stw	r6,-8(fp)
    30c0:	e1ffff15 	stw	r7,-4(fp)
  alt_irq_context irq_context;
  alt_u32 current_nticks = 0;
    30c4:	e03ff615 	stw	zero,-40(fp)
 * Obtain the system clock rate in ticks/s. 
 */

static ALT_INLINE alt_u32 ALT_ALWAYS_INLINE alt_ticks_per_second (void)
{
  return _alt_tick_rate;
    30c8:	00800034 	movhi	r2,0
    30cc:	109de404 	addi	r2,r2,30608
    30d0:	10800017 	ldw	r2,0(r2)
  
  if (alt_ticks_per_second ())
    30d4:	10003f26 	beq	r2,zero,31d4 <alt_alarm_start+0x12c>
  {
    if (alarm)
    30d8:	e0bffc17 	ldw	r2,-16(fp)
    30dc:	10003b26 	beq	r2,zero,31cc <alt_alarm_start+0x124>
    {
      alarm->callback = callback;
    30e0:	e0bffc17 	ldw	r2,-16(fp)
    30e4:	e0fffe17 	ldw	r3,-8(fp)
    30e8:	10c00315 	stw	r3,12(r2)
      alarm->context  = context;
    30ec:	e0bffc17 	ldw	r2,-16(fp)
    30f0:	e0ffff17 	ldw	r3,-4(fp)
    30f4:	10c00515 	stw	r3,20(r2)
static ALT_INLINE alt_irq_context ALT_ALWAYS_INLINE 
       alt_irq_disable_all (void)
{
  alt_irq_context context;

  NIOS2_READ_STATUS (context);
    30f8:	0005303a 	rdctl	r2,status
    30fc:	e0bff915 	stw	r2,-28(fp)

  NIOS2_WRITE_STATUS (context & ~NIOS2_STATUS_PIE_MSK);
    3100:	e0fff917 	ldw	r3,-28(fp)
    3104:	00bfff84 	movi	r2,-2
    3108:	1884703a 	and	r2,r3,r2
    310c:	1001703a 	wrctl	status,r2
  
  return context;
    3110:	e0bff917 	ldw	r2,-28(fp)
 
      irq_context = alt_irq_disable_all ();
    3114:	e0bff815 	stw	r2,-32(fp)
 * alt_nticks() returns the elapsed number of system clock ticks since reset.
 */

static ALT_INLINE alt_u32 ALT_ALWAYS_INLINE alt_nticks (void)
{
  return _alt_nticks;
    3118:	00800034 	movhi	r2,0
    311c:	109de504 	addi	r2,r2,30612
    3120:	10800017 	ldw	r2,0(r2)
      
      current_nticks = alt_nticks();
    3124:	e0bff615 	stw	r2,-40(fp)
      
      alarm->time = nticks + current_nticks + 1; 
    3128:	e0fffd17 	ldw	r3,-12(fp)
    312c:	e0bff617 	ldw	r2,-40(fp)
    3130:	1885883a 	add	r2,r3,r2
    3134:	10c00044 	addi	r3,r2,1
    3138:	e0bffc17 	ldw	r2,-16(fp)
    313c:	10c00215 	stw	r3,8(r2)
      /* 
       * If the desired alarm time causes a roll-over, set the rollover
       * flag. This will prevent the subsequent tick event from causing
       * an alarm too early.
       */
      if(alarm->time < current_nticks)
    3140:	e0bffc17 	ldw	r2,-16(fp)
    3144:	10c00217 	ldw	r3,8(r2)
    3148:	e0bff617 	ldw	r2,-40(fp)
    314c:	1880042e 	bgeu	r3,r2,3160 <alt_alarm_start+0xb8>
      {
        alarm->rollover = 1;
    3150:	e0bffc17 	ldw	r2,-16(fp)
    3154:	00c00044 	movi	r3,1
    3158:	10c00405 	stb	r3,16(r2)
    315c:	00000206 	br	3168 <alt_alarm_start+0xc0>
      }
      else
      {
        alarm->rollover = 0;
    3160:	e0bffc17 	ldw	r2,-16(fp)
    3164:	10000405 	stb	zero,16(r2)
      }
    
      alt_llist_insert (&alt_alarm_list, &alarm->llist);
    3168:	e0fffc17 	ldw	r3,-16(fp)
    316c:	00800034 	movhi	r2,0
    3170:	10977504 	addi	r2,r2,24020
    3174:	e0bffa15 	stw	r2,-24(fp)
    3178:	e0fffb15 	stw	r3,-20(fp)
 */

static ALT_INLINE void ALT_ALWAYS_INLINE alt_llist_insert(alt_llist* list, 
                alt_llist* entry)
{
  entry->previous = list;
    317c:	e0bffb17 	ldw	r2,-20(fp)
    3180:	e0fffa17 	ldw	r3,-24(fp)
    3184:	10c00115 	stw	r3,4(r2)
  entry->next     = list->next;
    3188:	e0bffa17 	ldw	r2,-24(fp)
    318c:	10c00017 	ldw	r3,0(r2)
    3190:	e0bffb17 	ldw	r2,-20(fp)
    3194:	10c00015 	stw	r3,0(r2)

  list->next->previous = entry;
    3198:	e0bffa17 	ldw	r2,-24(fp)
    319c:	10800017 	ldw	r2,0(r2)
    31a0:	e0fffb17 	ldw	r3,-20(fp)
    31a4:	10c00115 	stw	r3,4(r2)
  list->next           = entry;
    31a8:	e0bffa17 	ldw	r2,-24(fp)
    31ac:	e0fffb17 	ldw	r3,-20(fp)
    31b0:	10c00015 	stw	r3,0(r2)
    31b4:	e0bff817 	ldw	r2,-32(fp)
    31b8:	e0bff715 	stw	r2,-36(fp)
  status &= ~NIOS2_STATUS_PIE_MSK;
  status |= (context & NIOS2_STATUS_PIE_MSK);
  
  NIOS2_WRITE_STATUS (status);
#else
  NIOS2_WRITE_STATUS (context);
    31bc:	e0bff717 	ldw	r2,-36(fp)
    31c0:	1001703a 	wrctl	status,r2
      alt_irq_enable_all (irq_context);

      return 0;
    31c4:	0005883a 	mov	r2,zero
    31c8:	00000306 	br	31d8 <alt_alarm_start+0x130>
    }
    else
    {
      return -EINVAL;
    31cc:	00bffa84 	movi	r2,-22
    31d0:	00000106 	br	31d8 <alt_alarm_start+0x130>
    }
  }
  else
  {
    return -ENOTSUP;
    31d4:	00bfde84 	movi	r2,-134
  }
}
    31d8:	e037883a 	mov	sp,fp
    31dc:	df000017 	ldw	fp,0(sp)
    31e0:	dec00104 	addi	sp,sp,4
    31e4:	f800283a 	ret

000031e8 <alt_get_errno>:
#undef errno

extern int errno;

static ALT_INLINE int* alt_get_errno(void)
{
    31e8:	defffe04 	addi	sp,sp,-8
    31ec:	dfc00115 	stw	ra,4(sp)
    31f0:	df000015 	stw	fp,0(sp)
    31f4:	d839883a 	mov	fp,sp
  return ((alt_errno) ? alt_errno() : &errno);
    31f8:	00800034 	movhi	r2,0
    31fc:	10977404 	addi	r2,r2,24016
    3200:	10800017 	ldw	r2,0(r2)
    3204:	10000526 	beq	r2,zero,321c <alt_get_errno+0x34>
    3208:	00800034 	movhi	r2,0
    320c:	10977404 	addi	r2,r2,24016
    3210:	10800017 	ldw	r2,0(r2)
    3214:	103ee83a 	callr	r2
    3218:	00000206 	br	3224 <alt_get_errno+0x3c>
    321c:	00800034 	movhi	r2,0
    3220:	109de704 	addi	r2,r2,30620
}
    3224:	e037883a 	mov	sp,fp
    3228:	dfc00117 	ldw	ra,4(sp)
    322c:	df000017 	ldw	fp,0(sp)
    3230:	dec00204 	addi	sp,sp,8
    3234:	f800283a 	ret

00003238 <close>:
 *
 * ALT_CLOSE is mapped onto the close() system call in alt_syscall.h
 */
 
int ALT_CLOSE (int fildes)
{
    3238:	defffb04 	addi	sp,sp,-20
    323c:	dfc00415 	stw	ra,16(sp)
    3240:	df000315 	stw	fp,12(sp)
    3244:	df000304 	addi	fp,sp,12
    3248:	e13fff15 	stw	r4,-4(fp)
   * A common error case is that when the file descriptor was created, the call
   * to open() failed resulting in a negative file descriptor. This is trapped
   * below so that we don't try and process an invalid file descriptor.
   */

  fd = (fildes < 0) ? NULL : &alt_fd_list[fildes];
    324c:	e0bfff17 	ldw	r2,-4(fp)
    3250:	10000616 	blt	r2,zero,326c <close+0x34>
    3254:	e0bfff17 	ldw	r2,-4(fp)
    3258:	10c00324 	muli	r3,r2,12
    325c:	00800034 	movhi	r2,0
    3260:	10960504 	addi	r2,r2,22548
    3264:	1885883a 	add	r2,r3,r2
    3268:	00000106 	br	3270 <close+0x38>
    326c:	0005883a 	mov	r2,zero
    3270:	e0bffd15 	stw	r2,-12(fp)

  if (fd)
    3274:	e0bffd17 	ldw	r2,-12(fp)
    3278:	10001926 	beq	r2,zero,32e0 <close+0xa8>
    /*
     * If the associated file system/device has a close function, call it so 
     * that any necessary cleanup code can run.
     */

    rval = (fd->dev->close) ? fd->dev->close(fd) : 0;
    327c:	e0bffd17 	ldw	r2,-12(fp)
    3280:	10800017 	ldw	r2,0(r2)
    3284:	10800417 	ldw	r2,16(r2)
    3288:	10000626 	beq	r2,zero,32a4 <close+0x6c>
    328c:	e0bffd17 	ldw	r2,-12(fp)
    3290:	10800017 	ldw	r2,0(r2)
    3294:	10800417 	ldw	r2,16(r2)
    3298:	e13ffd17 	ldw	r4,-12(fp)
    329c:	103ee83a 	callr	r2
    32a0:	00000106 	br	32a8 <close+0x70>
    32a4:	0005883a 	mov	r2,zero
    32a8:	e0bffe15 	stw	r2,-8(fp)

    /* Free the file descriptor structure and return. */

    alt_release_fd (fildes);
    32ac:	e13fff17 	ldw	r4,-4(fp)
    32b0:	00039800 	call	3980 <alt_release_fd>
    if (rval < 0)
    32b4:	e0bffe17 	ldw	r2,-8(fp)
    32b8:	1000070e 	bge	r2,zero,32d8 <close+0xa0>
    {
      ALT_ERRNO = -rval;
    32bc:	00031e80 	call	31e8 <alt_get_errno>
    32c0:	1007883a 	mov	r3,r2
    32c4:	e0bffe17 	ldw	r2,-8(fp)
    32c8:	0085c83a 	sub	r2,zero,r2
    32cc:	18800015 	stw	r2,0(r3)
      return -1;
    32d0:	00bfffc4 	movi	r2,-1
    32d4:	00000706 	br	32f4 <close+0xbc>
    }
    return 0;
    32d8:	0005883a 	mov	r2,zero
    32dc:	00000506 	br	32f4 <close+0xbc>
  }
  else
  {
    ALT_ERRNO = EBADFD;
    32e0:	00031e80 	call	31e8 <alt_get_errno>
    32e4:	1007883a 	mov	r3,r2
    32e8:	00801444 	movi	r2,81
    32ec:	18800015 	stw	r2,0(r3)
    return -1;
    32f0:	00bfffc4 	movi	r2,-1
  }
}
    32f4:	e037883a 	mov	sp,fp
    32f8:	dfc00117 	ldw	ra,4(sp)
    32fc:	df000017 	ldw	fp,0(sp)
    3300:	dec00204 	addi	sp,sp,8
    3304:	f800283a 	ret

00003308 <alt_dcache_flush_all>:
/*
 * alt_dcache_flush_all() is called to flush the entire data cache.
 */

void alt_dcache_flush_all (void)
{
    3308:	deffff04 	addi	sp,sp,-4
    330c:	df000015 	stw	fp,0(sp)
    3310:	d839883a 	mov	fp,sp
  for (i = (char*) 0; i < (char*) NIOS2_DCACHE_SIZE; i+= NIOS2_DCACHE_LINE_SIZE)
  { 
    __asm__ volatile ("flushd (%0)" :: "r" (i));
  }
#endif /* NIOS2_DCACHE_SIZE > 0 */
}
    3314:	0001883a 	nop
    3318:	e037883a 	mov	sp,fp
    331c:	df000017 	ldw	fp,0(sp)
    3320:	dec00104 	addi	sp,sp,4
    3324:	f800283a 	ret

00003328 <alt_dev_null_write>:
 * by the alt_dev_null device. It simple discards all data passed to it, and
 * indicates that the data has been successfully transmitted.
 */

static int alt_dev_null_write (alt_fd* fd, const char* ptr, int len)
{
    3328:	defffc04 	addi	sp,sp,-16
    332c:	df000315 	stw	fp,12(sp)
    3330:	df000304 	addi	fp,sp,12
    3334:	e13ffd15 	stw	r4,-12(fp)
    3338:	e17ffe15 	stw	r5,-8(fp)
    333c:	e1bfff15 	stw	r6,-4(fp)
  return len;
    3340:	e0bfff17 	ldw	r2,-4(fp)
}
    3344:	e037883a 	mov	sp,fp
    3348:	df000017 	ldw	fp,0(sp)
    334c:	dec00104 	addi	sp,sp,4
    3350:	f800283a 	ret

00003354 <alt_get_errno>:
#undef errno

extern int errno;

static ALT_INLINE int* alt_get_errno(void)
{
    3354:	defffe04 	addi	sp,sp,-8
    3358:	dfc00115 	stw	ra,4(sp)
    335c:	df000015 	stw	fp,0(sp)
    3360:	d839883a 	mov	fp,sp
  return ((alt_errno) ? alt_errno() : &errno);
    3364:	00800034 	movhi	r2,0
    3368:	10977404 	addi	r2,r2,24016
    336c:	10800017 	ldw	r2,0(r2)
    3370:	10000526 	beq	r2,zero,3388 <alt_get_errno+0x34>
    3374:	00800034 	movhi	r2,0
    3378:	10977404 	addi	r2,r2,24016
    337c:	10800017 	ldw	r2,0(r2)
    3380:	103ee83a 	callr	r2
    3384:	00000206 	br	3390 <alt_get_errno+0x3c>
    3388:	00800034 	movhi	r2,0
    338c:	109de704 	addi	r2,r2,30620
}
    3390:	e037883a 	mov	sp,fp
    3394:	dfc00117 	ldw	ra,4(sp)
    3398:	df000017 	ldw	fp,0(sp)
    339c:	dec00204 	addi	sp,sp,8
    33a0:	f800283a 	ret

000033a4 <alt_dev_llist_insert>:
/*
 *
 */

int alt_dev_llist_insert (alt_dev_llist* dev, alt_llist* list)
{
    33a4:	defffa04 	addi	sp,sp,-24
    33a8:	dfc00515 	stw	ra,20(sp)
    33ac:	df000415 	stw	fp,16(sp)
    33b0:	df000404 	addi	fp,sp,16
    33b4:	e13ffe15 	stw	r4,-8(fp)
    33b8:	e17fff15 	stw	r5,-4(fp)
  /*
   * check that the device exists, and that it has a valid name.
   */

  if (!dev || !dev->name)
    33bc:	e0bffe17 	ldw	r2,-8(fp)
    33c0:	10000326 	beq	r2,zero,33d0 <alt_dev_llist_insert+0x2c>
    33c4:	e0bffe17 	ldw	r2,-8(fp)
    33c8:	10800217 	ldw	r2,8(r2)
    33cc:	1000061e 	bne	r2,zero,33e8 <alt_dev_llist_insert+0x44>
  {
    ALT_ERRNO = EINVAL;
    33d0:	00033540 	call	3354 <alt_get_errno>
    33d4:	1007883a 	mov	r3,r2
    33d8:	00800584 	movi	r2,22
    33dc:	18800015 	stw	r2,0(r3)
    return -EINVAL;
    33e0:	00bffa84 	movi	r2,-22
    33e4:	00001306 	br	3434 <alt_dev_llist_insert+0x90>
  
  /*
   * register the device.
   */
  
  alt_llist_insert(list, &dev->llist);
    33e8:	e0bffe17 	ldw	r2,-8(fp)
    33ec:	e0ffff17 	ldw	r3,-4(fp)
    33f0:	e0fffc15 	stw	r3,-16(fp)
    33f4:	e0bffd15 	stw	r2,-12(fp)
 */

static ALT_INLINE void ALT_ALWAYS_INLINE alt_llist_insert(alt_llist* list, 
                alt_llist* entry)
{
  entry->previous = list;
    33f8:	e0bffd17 	ldw	r2,-12(fp)
    33fc:	e0fffc17 	ldw	r3,-16(fp)
    3400:	10c00115 	stw	r3,4(r2)
  entry->next     = list->next;
    3404:	e0bffc17 	ldw	r2,-16(fp)
    3408:	10c00017 	ldw	r3,0(r2)
    340c:	e0bffd17 	ldw	r2,-12(fp)
    3410:	10c00015 	stw	r3,0(r2)

  list->next->previous = entry;
    3414:	e0bffc17 	ldw	r2,-16(fp)
    3418:	10800017 	ldw	r2,0(r2)
    341c:	e0fffd17 	ldw	r3,-12(fp)
    3420:	10c00115 	stw	r3,4(r2)
  list->next           = entry;
    3424:	e0bffc17 	ldw	r2,-16(fp)
    3428:	e0fffd17 	ldw	r3,-12(fp)
    342c:	10c00015 	stw	r3,0(r2)

  return 0;  
    3430:	0005883a 	mov	r2,zero
}
    3434:	e037883a 	mov	sp,fp
    3438:	dfc00117 	ldw	ra,4(sp)
    343c:	df000017 	ldw	fp,0(sp)
    3440:	dec00204 	addi	sp,sp,8
    3444:	f800283a 	ret

00003448 <_do_ctors>:
/*
 * Run the C++ static constructors.
 */

void _do_ctors(void)
{
    3448:	defffd04 	addi	sp,sp,-12
    344c:	dfc00215 	stw	ra,8(sp)
    3450:	df000115 	stw	fp,4(sp)
    3454:	df000104 	addi	fp,sp,4
  constructor* ctor;

  for (ctor = &__CTOR_END__[-1]; ctor >= __CTOR_LIST__; ctor--)
    3458:	00800034 	movhi	r2,0
    345c:	1090b204 	addi	r2,r2,17096
    3460:	e0bfff15 	stw	r2,-4(fp)
    3464:	00000606 	br	3480 <_do_ctors+0x38>
        (*ctor) (); 
    3468:	e0bfff17 	ldw	r2,-4(fp)
    346c:	10800017 	ldw	r2,0(r2)
    3470:	103ee83a 	callr	r2

void _do_ctors(void)
{
  constructor* ctor;

  for (ctor = &__CTOR_END__[-1]; ctor >= __CTOR_LIST__; ctor--)
    3474:	e0bfff17 	ldw	r2,-4(fp)
    3478:	10bfff04 	addi	r2,r2,-4
    347c:	e0bfff15 	stw	r2,-4(fp)
    3480:	e0ffff17 	ldw	r3,-4(fp)
    3484:	00800034 	movhi	r2,0
    3488:	1090b304 	addi	r2,r2,17100
    348c:	18bff62e 	bgeu	r3,r2,3468 <__alt_mem_VGA_Subsystem_Char_Buf_Subsystem_Onchip_SRAM+0xf7003468>
        (*ctor) (); 
}
    3490:	0001883a 	nop
    3494:	e037883a 	mov	sp,fp
    3498:	dfc00117 	ldw	ra,4(sp)
    349c:	df000017 	ldw	fp,0(sp)
    34a0:	dec00204 	addi	sp,sp,8
    34a4:	f800283a 	ret

000034a8 <_do_dtors>:
/*
 * Run the C++ static destructors.
 */

void _do_dtors(void)
{
    34a8:	defffd04 	addi	sp,sp,-12
    34ac:	dfc00215 	stw	ra,8(sp)
    34b0:	df000115 	stw	fp,4(sp)
    34b4:	df000104 	addi	fp,sp,4
  destructor* dtor;

  for (dtor = &__DTOR_END__[-1]; dtor >= __DTOR_LIST__; dtor--)
    34b8:	00800034 	movhi	r2,0
    34bc:	1090b204 	addi	r2,r2,17096
    34c0:	e0bfff15 	stw	r2,-4(fp)
    34c4:	00000606 	br	34e0 <_do_dtors+0x38>
        (*dtor) (); 
    34c8:	e0bfff17 	ldw	r2,-4(fp)
    34cc:	10800017 	ldw	r2,0(r2)
    34d0:	103ee83a 	callr	r2

void _do_dtors(void)
{
  destructor* dtor;

  for (dtor = &__DTOR_END__[-1]; dtor >= __DTOR_LIST__; dtor--)
    34d4:	e0bfff17 	ldw	r2,-4(fp)
    34d8:	10bfff04 	addi	r2,r2,-4
    34dc:	e0bfff15 	stw	r2,-4(fp)
    34e0:	e0ffff17 	ldw	r3,-4(fp)
    34e4:	00800034 	movhi	r2,0
    34e8:	1090b304 	addi	r2,r2,17100
    34ec:	18bff62e 	bgeu	r3,r2,34c8 <__alt_mem_VGA_Subsystem_Char_Buf_Subsystem_Onchip_SRAM+0xf70034c8>
        (*dtor) (); 
}
    34f0:	0001883a 	nop
    34f4:	e037883a 	mov	sp,fp
    34f8:	dfc00117 	ldw	ra,4(sp)
    34fc:	df000017 	ldw	fp,0(sp)
    3500:	dec00204 	addi	sp,sp,8
    3504:	f800283a 	ret

00003508 <alt_find_dev>:
 * "name" must be an exact match for the devices registered name for a match to
 * be found.
 */
 
alt_dev* alt_find_dev(const char* name, alt_llist* llist)
{
    3508:	defffa04 	addi	sp,sp,-24
    350c:	dfc00515 	stw	ra,20(sp)
    3510:	df000415 	stw	fp,16(sp)
    3514:	df000404 	addi	fp,sp,16
    3518:	e13ffe15 	stw	r4,-8(fp)
    351c:	e17fff15 	stw	r5,-4(fp)
  alt_dev* next = (alt_dev*) llist->next;
    3520:	e0bfff17 	ldw	r2,-4(fp)
    3524:	10800017 	ldw	r2,0(r2)
    3528:	e0bffc15 	stw	r2,-16(fp)
  alt_32 len;

  len  = strlen(name) + 1;
    352c:	e13ffe17 	ldw	r4,-8(fp)
    3530:	0003f680 	call	3f68 <strlen>
    3534:	10800044 	addi	r2,r2,1
    3538:	e0bffd15 	stw	r2,-12(fp)
  /*
   * Check each list entry in turn, until a match is found, or we reach the
   * end of the list (i.e. next winds up pointing back to the list head).
   */ 

  while (next != (alt_dev*) llist)
    353c:	00000d06 	br	3574 <alt_find_dev+0x6c>
    /* 
     * memcmp() is used here rather than strcmp() in order to reduce the size
     * of the executable.
     */

    if (!memcmp (next->name, name, len))
    3540:	e0bffc17 	ldw	r2,-16(fp)
    3544:	10800217 	ldw	r2,8(r2)
    3548:	e0fffd17 	ldw	r3,-12(fp)
    354c:	180d883a 	mov	r6,r3
    3550:	e17ffe17 	ldw	r5,-8(fp)
    3554:	1009883a 	mov	r4,r2
    3558:	0003eec0 	call	3eec <memcmp>
    355c:	1000021e 	bne	r2,zero,3568 <alt_find_dev+0x60>
    {
      /* match found */

      return next;
    3560:	e0bffc17 	ldw	r2,-16(fp)
    3564:	00000706 	br	3584 <alt_find_dev+0x7c>
    }
    next = (alt_dev*) next->llist.next;
    3568:	e0bffc17 	ldw	r2,-16(fp)
    356c:	10800017 	ldw	r2,0(r2)
    3570:	e0bffc15 	stw	r2,-16(fp)
  /*
   * Check each list entry in turn, until a match is found, or we reach the
   * end of the list (i.e. next winds up pointing back to the list head).
   */ 

  while (next != (alt_dev*) llist)
    3574:	e0fffc17 	ldw	r3,-16(fp)
    3578:	e0bfff17 	ldw	r2,-4(fp)
    357c:	18bff01e 	bne	r3,r2,3540 <__alt_mem_VGA_Subsystem_Char_Buf_Subsystem_Onchip_SRAM+0xf7003540>
    next = (alt_dev*) next->llist.next;
  }
  
  /* No match found */
  
  return NULL;
    3580:	0005883a 	mov	r2,zero
}
    3584:	e037883a 	mov	sp,fp
    3588:	dfc00117 	ldw	ra,4(sp)
    358c:	df000017 	ldw	fp,0(sp)
    3590:	dec00204 	addi	sp,sp,8
    3594:	f800283a 	ret

00003598 <alt_icache_flush_all>:
/*
 * alt_icache_flush_all() is called to flush the entire instruction cache.
 */

void alt_icache_flush_all (void)
{
    3598:	defffe04 	addi	sp,sp,-8
    359c:	dfc00115 	stw	ra,4(sp)
    35a0:	df000015 	stw	fp,0(sp)
    35a4:	d839883a 	mov	fp,sp
#if NIOS2_ICACHE_SIZE > 0
  alt_icache_flush (0, NIOS2_ICACHE_SIZE);
    35a8:	01440004 	movi	r5,4096
    35ac:	0009883a 	mov	r4,zero
    35b0:	0003d740 	call	3d74 <alt_icache_flush>
#endif
}
    35b4:	0001883a 	nop
    35b8:	e037883a 	mov	sp,fp
    35bc:	dfc00117 	ldw	ra,4(sp)
    35c0:	df000017 	ldw	fp,0(sp)
    35c4:	dec00204 	addi	sp,sp,8
    35c8:	f800283a 	ret

000035cc <alt_open_fd>:
 * If the device can not be succesfully opened, then the input file descriptor
 * remains unchanged.
 */

static void alt_open_fd(alt_fd* fd, const char* name, int flags, int mode)
{
    35cc:	defff904 	addi	sp,sp,-28
    35d0:	dfc00615 	stw	ra,24(sp)
    35d4:	df000515 	stw	fp,20(sp)
    35d8:	df000504 	addi	fp,sp,20
    35dc:	e13ffc15 	stw	r4,-16(fp)
    35e0:	e17ffd15 	stw	r5,-12(fp)
    35e4:	e1bffe15 	stw	r6,-8(fp)
    35e8:	e1ffff15 	stw	r7,-4(fp)
  int old;

  old = open (name, flags, mode);
    35ec:	e1bfff17 	ldw	r6,-4(fp)
    35f0:	e17ffe17 	ldw	r5,-8(fp)
    35f4:	e13ffd17 	ldw	r4,-12(fp)
    35f8:	00038280 	call	3828 <open>
    35fc:	e0bffb15 	stw	r2,-20(fp)

  if (old >= 0)
    3600:	e0bffb17 	ldw	r2,-20(fp)
    3604:	10001c16 	blt	r2,zero,3678 <alt_open_fd+0xac>
  {
    fd->dev      = alt_fd_list[old].dev;
    3608:	00800034 	movhi	r2,0
    360c:	10960504 	addi	r2,r2,22548
    3610:	e0fffb17 	ldw	r3,-20(fp)
    3614:	18c00324 	muli	r3,r3,12
    3618:	10c5883a 	add	r2,r2,r3
    361c:	10c00017 	ldw	r3,0(r2)
    3620:	e0bffc17 	ldw	r2,-16(fp)
    3624:	10c00015 	stw	r3,0(r2)
    fd->priv     = alt_fd_list[old].priv;
    3628:	00800034 	movhi	r2,0
    362c:	10960504 	addi	r2,r2,22548
    3630:	e0fffb17 	ldw	r3,-20(fp)
    3634:	18c00324 	muli	r3,r3,12
    3638:	10c5883a 	add	r2,r2,r3
    363c:	10800104 	addi	r2,r2,4
    3640:	10c00017 	ldw	r3,0(r2)
    3644:	e0bffc17 	ldw	r2,-16(fp)
    3648:	10c00115 	stw	r3,4(r2)
    fd->fd_flags = alt_fd_list[old].fd_flags;
    364c:	00800034 	movhi	r2,0
    3650:	10960504 	addi	r2,r2,22548
    3654:	e0fffb17 	ldw	r3,-20(fp)
    3658:	18c00324 	muli	r3,r3,12
    365c:	10c5883a 	add	r2,r2,r3
    3660:	10800204 	addi	r2,r2,8
    3664:	10c00017 	ldw	r3,0(r2)
    3668:	e0bffc17 	ldw	r2,-16(fp)
    366c:	10c00215 	stw	r3,8(r2)

    alt_release_fd (old);
    3670:	e13ffb17 	ldw	r4,-20(fp)
    3674:	00039800 	call	3980 <alt_release_fd>
  }
} 
    3678:	0001883a 	nop
    367c:	e037883a 	mov	sp,fp
    3680:	dfc00117 	ldw	ra,4(sp)
    3684:	df000017 	ldw	fp,0(sp)
    3688:	dec00204 	addi	sp,sp,8
    368c:	f800283a 	ret

00003690 <alt_io_redirect>:
 */
 
void alt_io_redirect(const char* stdout_dev, 
                     const char* stdin_dev, 
                     const char* stderr_dev)
{
    3690:	defffb04 	addi	sp,sp,-20
    3694:	dfc00415 	stw	ra,16(sp)
    3698:	df000315 	stw	fp,12(sp)
    369c:	df000304 	addi	fp,sp,12
    36a0:	e13ffd15 	stw	r4,-12(fp)
    36a4:	e17ffe15 	stw	r5,-8(fp)
    36a8:	e1bfff15 	stw	r6,-4(fp)
  /* Redirect the channels */

  alt_open_fd (&alt_fd_list[STDOUT_FILENO], stdout_dev, O_WRONLY, 0777);
    36ac:	01c07fc4 	movi	r7,511
    36b0:	01800044 	movi	r6,1
    36b4:	e17ffd17 	ldw	r5,-12(fp)
    36b8:	01000034 	movhi	r4,0
    36bc:	21160804 	addi	r4,r4,22560
    36c0:	00035cc0 	call	35cc <alt_open_fd>
  alt_open_fd (&alt_fd_list[STDIN_FILENO], stdin_dev, O_RDONLY, 0777);
    36c4:	01c07fc4 	movi	r7,511
    36c8:	000d883a 	mov	r6,zero
    36cc:	e17ffe17 	ldw	r5,-8(fp)
    36d0:	01000034 	movhi	r4,0
    36d4:	21160504 	addi	r4,r4,22548
    36d8:	00035cc0 	call	35cc <alt_open_fd>
  alt_open_fd (&alt_fd_list[STDERR_FILENO], stderr_dev, O_WRONLY, 0777);
    36dc:	01c07fc4 	movi	r7,511
    36e0:	01800044 	movi	r6,1
    36e4:	e17fff17 	ldw	r5,-4(fp)
    36e8:	01000034 	movhi	r4,0
    36ec:	21160b04 	addi	r4,r4,22572
    36f0:	00035cc0 	call	35cc <alt_open_fd>
}  
    36f4:	0001883a 	nop
    36f8:	e037883a 	mov	sp,fp
    36fc:	dfc00117 	ldw	ra,4(sp)
    3700:	df000017 	ldw	fp,0(sp)
    3704:	dec00204 	addi	sp,sp,8
    3708:	f800283a 	ret

0000370c <alt_get_errno>:
#undef errno

extern int errno;

static ALT_INLINE int* alt_get_errno(void)
{
    370c:	defffe04 	addi	sp,sp,-8
    3710:	dfc00115 	stw	ra,4(sp)
    3714:	df000015 	stw	fp,0(sp)
    3718:	d839883a 	mov	fp,sp
  return ((alt_errno) ? alt_errno() : &errno);
    371c:	00800034 	movhi	r2,0
    3720:	10977404 	addi	r2,r2,24016
    3724:	10800017 	ldw	r2,0(r2)
    3728:	10000526 	beq	r2,zero,3740 <alt_get_errno+0x34>
    372c:	00800034 	movhi	r2,0
    3730:	10977404 	addi	r2,r2,24016
    3734:	10800017 	ldw	r2,0(r2)
    3738:	103ee83a 	callr	r2
    373c:	00000206 	br	3748 <alt_get_errno+0x3c>
    3740:	00800034 	movhi	r2,0
    3744:	109de704 	addi	r2,r2,30620
}
    3748:	e037883a 	mov	sp,fp
    374c:	dfc00117 	ldw	ra,4(sp)
    3750:	df000017 	ldw	fp,0(sp)
    3754:	dec00204 	addi	sp,sp,8
    3758:	f800283a 	ret

0000375c <alt_file_locked>:
 * performed for devices. Filesystems are required to handle the ioctl() call
 * themselves, and report the error from the filesystems open() function. 
 */ 

static int alt_file_locked (alt_fd* fd)
{
    375c:	defffd04 	addi	sp,sp,-12
    3760:	df000215 	stw	fp,8(sp)
    3764:	df000204 	addi	fp,sp,8
    3768:	e13fff15 	stw	r4,-4(fp)

  /*
   * Mark the file descriptor as belonging to a device.
   */

  fd->fd_flags |= ALT_FD_DEV;
    376c:	e0bfff17 	ldw	r2,-4(fp)
    3770:	10800217 	ldw	r2,8(r2)
    3774:	10d00034 	orhi	r3,r2,16384
    3778:	e0bfff17 	ldw	r2,-4(fp)
    377c:	10c00215 	stw	r3,8(r2)
  /*
   * Loop through all current file descriptors searching for one that's locked
   * for exclusive access. If a match is found, generate an error.
   */

  for (i = 0; i <= alt_max_fd; i++)
    3780:	e03ffe15 	stw	zero,-8(fp)
    3784:	00001d06 	br	37fc <alt_file_locked+0xa0>
  {
    if ((alt_fd_list[i].dev == fd->dev) &&
    3788:	00800034 	movhi	r2,0
    378c:	10960504 	addi	r2,r2,22548
    3790:	e0fffe17 	ldw	r3,-8(fp)
    3794:	18c00324 	muli	r3,r3,12
    3798:	10c5883a 	add	r2,r2,r3
    379c:	10c00017 	ldw	r3,0(r2)
    37a0:	e0bfff17 	ldw	r2,-4(fp)
    37a4:	10800017 	ldw	r2,0(r2)
    37a8:	1880111e 	bne	r3,r2,37f0 <alt_file_locked+0x94>
        (alt_fd_list[i].fd_flags & ALT_FD_EXCL) &&
    37ac:	00800034 	movhi	r2,0
    37b0:	10960504 	addi	r2,r2,22548
    37b4:	e0fffe17 	ldw	r3,-8(fp)
    37b8:	18c00324 	muli	r3,r3,12
    37bc:	10c5883a 	add	r2,r2,r3
    37c0:	10800204 	addi	r2,r2,8
    37c4:	10800017 	ldw	r2,0(r2)
   * for exclusive access. If a match is found, generate an error.
   */

  for (i = 0; i <= alt_max_fd; i++)
  {
    if ((alt_fd_list[i].dev == fd->dev) &&
    37c8:	1000090e 	bge	r2,zero,37f0 <alt_file_locked+0x94>
        (alt_fd_list[i].fd_flags & ALT_FD_EXCL) &&
        (&alt_fd_list[i] != fd))
    37cc:	e0bffe17 	ldw	r2,-8(fp)
    37d0:	10c00324 	muli	r3,r2,12
    37d4:	00800034 	movhi	r2,0
    37d8:	10960504 	addi	r2,r2,22548
    37dc:	1887883a 	add	r3,r3,r2
   */

  for (i = 0; i <= alt_max_fd; i++)
  {
    if ((alt_fd_list[i].dev == fd->dev) &&
        (alt_fd_list[i].fd_flags & ALT_FD_EXCL) &&
    37e0:	e0bfff17 	ldw	r2,-4(fp)
    37e4:	18800226 	beq	r3,r2,37f0 <alt_file_locked+0x94>
        (&alt_fd_list[i] != fd))
    {
      return -EACCES;
    37e8:	00bffcc4 	movi	r2,-13
    37ec:	00000a06 	br	3818 <alt_file_locked+0xbc>
  /*
   * Loop through all current file descriptors searching for one that's locked
   * for exclusive access. If a match is found, generate an error.
   */

  for (i = 0; i <= alt_max_fd; i++)
    37f0:	e0bffe17 	ldw	r2,-8(fp)
    37f4:	10800044 	addi	r2,r2,1
    37f8:	e0bffe15 	stw	r2,-8(fp)
    37fc:	00800034 	movhi	r2,0
    3800:	10977304 	addi	r2,r2,24012
    3804:	10800017 	ldw	r2,0(r2)
    3808:	1007883a 	mov	r3,r2
    380c:	e0bffe17 	ldw	r2,-8(fp)
    3810:	18bfdd2e 	bgeu	r3,r2,3788 <__alt_mem_VGA_Subsystem_Char_Buf_Subsystem_Onchip_SRAM+0xf7003788>
    }
  }
  
  /* The device is not locked */
 
  return 0;
    3814:	0005883a 	mov	r2,zero
}
    3818:	e037883a 	mov	sp,fp
    381c:	df000017 	ldw	fp,0(sp)
    3820:	dec00104 	addi	sp,sp,4
    3824:	f800283a 	ret

00003828 <open>:
 *
 * ALT_OPEN is mapped onto the open() system call in alt_syscall.h
 */
 
int ALT_OPEN (const char* file, int flags, int mode)
{ 
    3828:	defff604 	addi	sp,sp,-40
    382c:	dfc00915 	stw	ra,36(sp)
    3830:	df000815 	stw	fp,32(sp)
    3834:	df000804 	addi	fp,sp,32
    3838:	e13ffd15 	stw	r4,-12(fp)
    383c:	e17ffe15 	stw	r5,-8(fp)
    3840:	e1bfff15 	stw	r6,-4(fp)
  alt_dev* dev;
  alt_fd*  fd;
  int index  = -1;
    3844:	00bfffc4 	movi	r2,-1
    3848:	e0bff915 	stw	r2,-28(fp)
  int status = -ENODEV;
    384c:	00bffb44 	movi	r2,-19
    3850:	e0bffa15 	stw	r2,-24(fp)
  int isafs = 0;
    3854:	e03ffb15 	stw	zero,-20(fp)
  /* 
   * Check the device list, to see if a device with a matching name is 
   * registered.
   */
  
  if (!(dev = alt_find_dev (file, &alt_dev_list)))
    3858:	01400034 	movhi	r5,0
    385c:	29577104 	addi	r5,r5,24004
    3860:	e13ffd17 	ldw	r4,-12(fp)
    3864:	00035080 	call	3508 <alt_find_dev>
    3868:	e0bff815 	stw	r2,-32(fp)
    386c:	e0bff817 	ldw	r2,-32(fp)
    3870:	1000051e 	bne	r2,zero,3888 <open+0x60>
  {
    /* No matching device, so try the filesystem list */

    dev   = alt_find_file (file);
    3874:	e13ffd17 	ldw	r4,-12(fp)
    3878:	0003bac0 	call	3bac <alt_find_file>
    387c:	e0bff815 	stw	r2,-32(fp)
    isafs = 1;
    3880:	00800044 	movi	r2,1
    3884:	e0bffb15 	stw	r2,-20(fp)

  /* 
   * If a matching device or filesystem is found, allocate a file descriptor. 
   */

  if (dev)
    3888:	e0bff817 	ldw	r2,-32(fp)
    388c:	10002926 	beq	r2,zero,3934 <open+0x10c>
  {
    if ((index = alt_get_fd (dev)) < 0)
    3890:	e13ff817 	ldw	r4,-32(fp)
    3894:	0003cc00 	call	3cc0 <alt_get_fd>
    3898:	e0bff915 	stw	r2,-28(fp)
    389c:	e0bff917 	ldw	r2,-28(fp)
    38a0:	1000030e 	bge	r2,zero,38b0 <open+0x88>
    {
      status = index;
    38a4:	e0bff917 	ldw	r2,-28(fp)
    38a8:	e0bffa15 	stw	r2,-24(fp)
    38ac:	00002306 	br	393c <open+0x114>
    }
    else
    {
      fd = &alt_fd_list[index];
    38b0:	e0bff917 	ldw	r2,-28(fp)
    38b4:	10c00324 	muli	r3,r2,12
    38b8:	00800034 	movhi	r2,0
    38bc:	10960504 	addi	r2,r2,22548
    38c0:	1885883a 	add	r2,r3,r2
    38c4:	e0bffc15 	stw	r2,-16(fp)
      fd->fd_flags = (flags & ~ALT_FD_FLAGS_MASK);
    38c8:	e0fffe17 	ldw	r3,-8(fp)
    38cc:	00900034 	movhi	r2,16384
    38d0:	10bfffc4 	addi	r2,r2,-1
    38d4:	1886703a 	and	r3,r3,r2
    38d8:	e0bffc17 	ldw	r2,-16(fp)
    38dc:	10c00215 	stw	r3,8(r2)
      
      /* If this is a device, ensure it isn't already locked */

      if (isafs || ((status = alt_file_locked (fd)) >= 0))
    38e0:	e0bffb17 	ldw	r2,-20(fp)
    38e4:	1000051e 	bne	r2,zero,38fc <open+0xd4>
    38e8:	e13ffc17 	ldw	r4,-16(fp)
    38ec:	000375c0 	call	375c <alt_file_locked>
    38f0:	e0bffa15 	stw	r2,-24(fp)
    38f4:	e0bffa17 	ldw	r2,-24(fp)
    38f8:	10001016 	blt	r2,zero,393c <open+0x114>
        /* 
         * If the device or filesystem provides an open() callback function,
         * call it now to perform any device/filesystem specific operations.
         */
    
        status = (dev->open) ? dev->open(fd, file, flags, mode): 0;
    38fc:	e0bff817 	ldw	r2,-32(fp)
    3900:	10800317 	ldw	r2,12(r2)
    3904:	10000826 	beq	r2,zero,3928 <open+0x100>
    3908:	e0bff817 	ldw	r2,-32(fp)
    390c:	10800317 	ldw	r2,12(r2)
    3910:	e1ffff17 	ldw	r7,-4(fp)
    3914:	e1bffe17 	ldw	r6,-8(fp)
    3918:	e17ffd17 	ldw	r5,-12(fp)
    391c:	e13ffc17 	ldw	r4,-16(fp)
    3920:	103ee83a 	callr	r2
    3924:	00000106 	br	392c <open+0x104>
    3928:	0005883a 	mov	r2,zero
    392c:	e0bffa15 	stw	r2,-24(fp)
    3930:	00000206 	br	393c <open+0x114>
      }
    }
  }
  else
  {
    status = -ENODEV;
    3934:	00bffb44 	movi	r2,-19
    3938:	e0bffa15 	stw	r2,-24(fp)
  }

  /* Allocation failed, so clean up and return an error */ 

  if (status < 0)
    393c:	e0bffa17 	ldw	r2,-24(fp)
    3940:	1000090e 	bge	r2,zero,3968 <open+0x140>
  {
    alt_release_fd (index);  
    3944:	e13ff917 	ldw	r4,-28(fp)
    3948:	00039800 	call	3980 <alt_release_fd>
    ALT_ERRNO = -status;
    394c:	000370c0 	call	370c <alt_get_errno>
    3950:	1007883a 	mov	r3,r2
    3954:	e0bffa17 	ldw	r2,-24(fp)
    3958:	0085c83a 	sub	r2,zero,r2
    395c:	18800015 	stw	r2,0(r3)
    return -1;
    3960:	00bfffc4 	movi	r2,-1
    3964:	00000106 	br	396c <open+0x144>
  }
  
  /* return the reference upon success */

  return index;
    3968:	e0bff917 	ldw	r2,-28(fp)
}
    396c:	e037883a 	mov	sp,fp
    3970:	dfc00117 	ldw	ra,4(sp)
    3974:	df000017 	ldw	fp,0(sp)
    3978:	dec00204 	addi	sp,sp,8
    397c:	f800283a 	ret

00003980 <alt_release_fd>:
 * File descriptors correcponding to standard in, standard out and standard 
 * error cannont be released backed to the pool. They are always reserved.
 */

void alt_release_fd (int fd)
{
    3980:	defffe04 	addi	sp,sp,-8
    3984:	df000115 	stw	fp,4(sp)
    3988:	df000104 	addi	fp,sp,4
    398c:	e13fff15 	stw	r4,-4(fp)
  if (fd > 2)
    3990:	e0bfff17 	ldw	r2,-4(fp)
    3994:	108000d0 	cmplti	r2,r2,3
    3998:	10000d1e 	bne	r2,zero,39d0 <alt_release_fd+0x50>
  {
    alt_fd_list[fd].fd_flags = 0;
    399c:	00800034 	movhi	r2,0
    39a0:	10960504 	addi	r2,r2,22548
    39a4:	e0ffff17 	ldw	r3,-4(fp)
    39a8:	18c00324 	muli	r3,r3,12
    39ac:	10c5883a 	add	r2,r2,r3
    39b0:	10800204 	addi	r2,r2,8
    39b4:	10000015 	stw	zero,0(r2)
    alt_fd_list[fd].dev      = 0;
    39b8:	00800034 	movhi	r2,0
    39bc:	10960504 	addi	r2,r2,22548
    39c0:	e0ffff17 	ldw	r3,-4(fp)
    39c4:	18c00324 	muli	r3,r3,12
    39c8:	10c5883a 	add	r2,r2,r3
    39cc:	10000015 	stw	zero,0(r2)
  }
}
    39d0:	0001883a 	nop
    39d4:	e037883a 	mov	sp,fp
    39d8:	df000017 	ldw	fp,0(sp)
    39dc:	dec00104 	addi	sp,sp,4
    39e0:	f800283a 	ret

000039e4 <alt_alarm_stop>:
 * alarms. Alternatively an alarm can unregister itself by returning zero when 
 * the alarm executes.
 */

void alt_alarm_stop (alt_alarm* alarm)
{
    39e4:	defffa04 	addi	sp,sp,-24
    39e8:	df000515 	stw	fp,20(sp)
    39ec:	df000504 	addi	fp,sp,20
    39f0:	e13fff15 	stw	r4,-4(fp)
static ALT_INLINE alt_irq_context ALT_ALWAYS_INLINE 
       alt_irq_disable_all (void)
{
  alt_irq_context context;

  NIOS2_READ_STATUS (context);
    39f4:	0005303a 	rdctl	r2,status
    39f8:	e0bffc15 	stw	r2,-16(fp)

  NIOS2_WRITE_STATUS (context & ~NIOS2_STATUS_PIE_MSK);
    39fc:	e0fffc17 	ldw	r3,-16(fp)
    3a00:	00bfff84 	movi	r2,-2
    3a04:	1884703a 	and	r2,r3,r2
    3a08:	1001703a 	wrctl	status,r2
  
  return context;
    3a0c:	e0bffc17 	ldw	r2,-16(fp)
  alt_irq_context irq_context;

  irq_context = alt_irq_disable_all();
    3a10:	e0bffb15 	stw	r2,-20(fp)
  alt_llist_remove (&alarm->llist);
    3a14:	e0bfff17 	ldw	r2,-4(fp)
    3a18:	e0bffd15 	stw	r2,-12(fp)
 * input argument is the element to remove.
 */
     
static ALT_INLINE void ALT_ALWAYS_INLINE alt_llist_remove(alt_llist* entry)
{
  entry->next->previous = entry->previous;
    3a1c:	e0bffd17 	ldw	r2,-12(fp)
    3a20:	10800017 	ldw	r2,0(r2)
    3a24:	e0fffd17 	ldw	r3,-12(fp)
    3a28:	18c00117 	ldw	r3,4(r3)
    3a2c:	10c00115 	stw	r3,4(r2)
  entry->previous->next = entry->next;
    3a30:	e0bffd17 	ldw	r2,-12(fp)
    3a34:	10800117 	ldw	r2,4(r2)
    3a38:	e0fffd17 	ldw	r3,-12(fp)
    3a3c:	18c00017 	ldw	r3,0(r3)
    3a40:	10c00015 	stw	r3,0(r2)
  /* 
   * Set the entry to point to itself, so that any further calls to
   * alt_llist_remove() are harmless.
   */

  entry->previous = entry;
    3a44:	e0bffd17 	ldw	r2,-12(fp)
    3a48:	e0fffd17 	ldw	r3,-12(fp)
    3a4c:	10c00115 	stw	r3,4(r2)
  entry->next     = entry;
    3a50:	e0bffd17 	ldw	r2,-12(fp)
    3a54:	e0fffd17 	ldw	r3,-12(fp)
    3a58:	10c00015 	stw	r3,0(r2)
    3a5c:	e0bffb17 	ldw	r2,-20(fp)
    3a60:	e0bffe15 	stw	r2,-8(fp)
  status &= ~NIOS2_STATUS_PIE_MSK;
  status |= (context & NIOS2_STATUS_PIE_MSK);
  
  NIOS2_WRITE_STATUS (status);
#else
  NIOS2_WRITE_STATUS (context);
    3a64:	e0bffe17 	ldw	r2,-8(fp)
    3a68:	1001703a 	wrctl	status,r2
  alt_irq_enable_all (irq_context);
}
    3a6c:	0001883a 	nop
    3a70:	e037883a 	mov	sp,fp
    3a74:	df000017 	ldw	fp,0(sp)
    3a78:	dec00104 	addi	sp,sp,4
    3a7c:	f800283a 	ret

00003a80 <alt_tick>:
 * 
 * alt_tick() is expected to run at interrupt level.
 */

void alt_tick (void)
{
    3a80:	defffb04 	addi	sp,sp,-20
    3a84:	dfc00415 	stw	ra,16(sp)
    3a88:	df000315 	stw	fp,12(sp)
    3a8c:	df000304 	addi	fp,sp,12
  alt_alarm* next;
  alt_alarm* alarm = (alt_alarm*) alt_alarm_list.next;
    3a90:	d0a00717 	ldw	r2,-32740(gp)
    3a94:	e0bffd15 	stw	r2,-12(fp)

  alt_u32    next_callback;

  /* update the tick counter */

  _alt_nticks++;
    3a98:	d0a67717 	ldw	r2,-26148(gp)
    3a9c:	10800044 	addi	r2,r2,1
    3aa0:	d0a67715 	stw	r2,-26148(gp)

  /* process the registered callbacks */

  while (alarm != (alt_alarm*) &alt_alarm_list)
    3aa4:	00002e06 	br	3b60 <alt_tick+0xe0>
  {
    next = (alt_alarm*) alarm->llist.next;
    3aa8:	e0bffd17 	ldw	r2,-12(fp)
    3aac:	10800017 	ldw	r2,0(r2)
    3ab0:	e0bffe15 	stw	r2,-8(fp)
    /* 
     * Upon the tick-counter rolling over it is safe to clear the 
     * roll-over flag; once the flag is cleared this (or subsequnt)
     * tick events are enabled to generate an alarm event. 
     */
    if ((alarm->rollover) && (_alt_nticks == 0))
    3ab4:	e0bffd17 	ldw	r2,-12(fp)
    3ab8:	10800403 	ldbu	r2,16(r2)
    3abc:	10803fcc 	andi	r2,r2,255
    3ac0:	10000426 	beq	r2,zero,3ad4 <alt_tick+0x54>
    3ac4:	d0a67717 	ldw	r2,-26148(gp)
    3ac8:	1000021e 	bne	r2,zero,3ad4 <alt_tick+0x54>
    {
      alarm->rollover = 0;
    3acc:	e0bffd17 	ldw	r2,-12(fp)
    3ad0:	10000405 	stb	zero,16(r2)
    }
    
    /* if the alarm period has expired, make the callback */    
    if ((alarm->time <= _alt_nticks) && (alarm->rollover == 0))
    3ad4:	e0bffd17 	ldw	r2,-12(fp)
    3ad8:	10800217 	ldw	r2,8(r2)
    3adc:	d0e67717 	ldw	r3,-26148(gp)
    3ae0:	18801d36 	bltu	r3,r2,3b58 <alt_tick+0xd8>
    3ae4:	e0bffd17 	ldw	r2,-12(fp)
    3ae8:	10800403 	ldbu	r2,16(r2)
    3aec:	10803fcc 	andi	r2,r2,255
    3af0:	1000191e 	bne	r2,zero,3b58 <alt_tick+0xd8>
    {
      next_callback = alarm->callback (alarm->context);
    3af4:	e0bffd17 	ldw	r2,-12(fp)
    3af8:	10800317 	ldw	r2,12(r2)
    3afc:	e0fffd17 	ldw	r3,-12(fp)
    3b00:	18c00517 	ldw	r3,20(r3)
    3b04:	1809883a 	mov	r4,r3
    3b08:	103ee83a 	callr	r2
    3b0c:	e0bfff15 	stw	r2,-4(fp)

      /* deactivate the alarm if the return value is zero */

      if (next_callback == 0)
    3b10:	e0bfff17 	ldw	r2,-4(fp)
    3b14:	1000031e 	bne	r2,zero,3b24 <alt_tick+0xa4>
      {
        alt_alarm_stop (alarm);
    3b18:	e13ffd17 	ldw	r4,-12(fp)
    3b1c:	00039e40 	call	39e4 <alt_alarm_stop>
    3b20:	00000d06 	br	3b58 <alt_tick+0xd8>
      }
      else
      {
        alarm->time += next_callback;
    3b24:	e0bffd17 	ldw	r2,-12(fp)
    3b28:	10c00217 	ldw	r3,8(r2)
    3b2c:	e0bfff17 	ldw	r2,-4(fp)
    3b30:	1887883a 	add	r3,r3,r2
    3b34:	e0bffd17 	ldw	r2,-12(fp)
    3b38:	10c00215 	stw	r3,8(r2)
        /* 
         * If the desired alarm time causes a roll-over, set the rollover
         * flag. This will prevent the subsequent tick event from causing
         * an alarm too early.
         */
        if(alarm->time < _alt_nticks)
    3b3c:	e0bffd17 	ldw	r2,-12(fp)
    3b40:	10c00217 	ldw	r3,8(r2)
    3b44:	d0a67717 	ldw	r2,-26148(gp)
    3b48:	1880032e 	bgeu	r3,r2,3b58 <alt_tick+0xd8>
        {
          alarm->rollover = 1;
    3b4c:	e0bffd17 	ldw	r2,-12(fp)
    3b50:	00c00044 	movi	r3,1
    3b54:	10c00405 	stb	r3,16(r2)
        }
      }
    }
    alarm = next;
    3b58:	e0bffe17 	ldw	r2,-8(fp)
    3b5c:	e0bffd15 	stw	r2,-12(fp)

  _alt_nticks++;

  /* process the registered callbacks */

  while (alarm != (alt_alarm*) &alt_alarm_list)
    3b60:	e0fffd17 	ldw	r3,-12(fp)
    3b64:	d0a00704 	addi	r2,gp,-32740
    3b68:	18bfcf1e 	bne	r3,r2,3aa8 <__alt_mem_VGA_Subsystem_Char_Buf_Subsystem_Onchip_SRAM+0xf7003aa8>

  /* 
   * Update the operating system specific timer facilities.
   */

  ALT_OS_TIME_TICK();
    3b6c:	0001883a 	nop
}
    3b70:	0001883a 	nop
    3b74:	e037883a 	mov	sp,fp
    3b78:	dfc00117 	ldw	ra,4(sp)
    3b7c:	df000017 	ldw	fp,0(sp)
    3b80:	dec00204 	addi	sp,sp,8
    3b84:	f800283a 	ret

00003b88 <altera_nios2_gen2_irq_init>:
/*
 * To initialize the internal interrupt controller, just clear the IENABLE
 * register so that all possible IRQs are disabled.
 */
void altera_nios2_gen2_irq_init(void) 
{
    3b88:	deffff04 	addi	sp,sp,-4
    3b8c:	df000015 	stw	fp,0(sp)
    3b90:	d839883a 	mov	fp,sp
    NIOS2_WRITE_IENABLE(0);
    3b94:	000170fa 	wrctl	ienable,zero
}
    3b98:	0001883a 	nop
    3b9c:	e037883a 	mov	sp,fp
    3ba0:	df000017 	ldw	fp,0(sp)
    3ba4:	dec00104 	addi	sp,sp,4
    3ba8:	f800283a 	ret

00003bac <alt_find_file>:
 * either '/' or '\0' is the prefix of the filename. For example the filename:
 * "/myfilesystem/junk.txt" would match: "/myfilesystem", but not: "/myfile". 
 */
 
alt_dev* alt_find_file (const char* name)
{
    3bac:	defffb04 	addi	sp,sp,-20
    3bb0:	dfc00415 	stw	ra,16(sp)
    3bb4:	df000315 	stw	fp,12(sp)
    3bb8:	df000304 	addi	fp,sp,12
    3bbc:	e13fff15 	stw	r4,-4(fp)
  alt_dev* next = (alt_dev*) alt_fs_list.next;   
    3bc0:	00800034 	movhi	r2,0
    3bc4:	10976f04 	addi	r2,r2,23996
    3bc8:	10800017 	ldw	r2,0(r2)
    3bcc:	e0bffd15 	stw	r2,-12(fp)
  /*
   * Check each list entry in turn, until a match is found, or we reach the
   * end of the list (i.e. next winds up pointing back to the list head).
   */ 
 
  while (next != (alt_dev*) &alt_fs_list)
    3bd0:	00003106 	br	3c98 <alt_find_file+0xec>
  {
    len = strlen(next->name);
    3bd4:	e0bffd17 	ldw	r2,-12(fp)
    3bd8:	10800217 	ldw	r2,8(r2)
    3bdc:	1009883a 	mov	r4,r2
    3be0:	0003f680 	call	3f68 <strlen>
    3be4:	e0bffe15 	stw	r2,-8(fp)
    
    if (next->name[len-1] == '/')
    3be8:	e0bffd17 	ldw	r2,-12(fp)
    3bec:	10c00217 	ldw	r3,8(r2)
    3bf0:	e0bffe17 	ldw	r2,-8(fp)
    3bf4:	10bfffc4 	addi	r2,r2,-1
    3bf8:	1885883a 	add	r2,r3,r2
    3bfc:	10800003 	ldbu	r2,0(r2)
    3c00:	10803fcc 	andi	r2,r2,255
    3c04:	1080201c 	xori	r2,r2,128
    3c08:	10bfe004 	addi	r2,r2,-128
    3c0c:	10800bd8 	cmpnei	r2,r2,47
    3c10:	1000031e 	bne	r2,zero,3c20 <alt_find_file+0x74>
    {
      len -= 1;
    3c14:	e0bffe17 	ldw	r2,-8(fp)
    3c18:	10bfffc4 	addi	r2,r2,-1
    3c1c:	e0bffe15 	stw	r2,-8(fp)
    }

    if (((name[len] == '/') || (name[len] == '\0')) && 
    3c20:	e0bffe17 	ldw	r2,-8(fp)
    3c24:	e0ffff17 	ldw	r3,-4(fp)
    3c28:	1885883a 	add	r2,r3,r2
    3c2c:	10800003 	ldbu	r2,0(r2)
    3c30:	10803fcc 	andi	r2,r2,255
    3c34:	1080201c 	xori	r2,r2,128
    3c38:	10bfe004 	addi	r2,r2,-128
    3c3c:	10800be0 	cmpeqi	r2,r2,47
    3c40:	1000081e 	bne	r2,zero,3c64 <alt_find_file+0xb8>
    3c44:	e0bffe17 	ldw	r2,-8(fp)
    3c48:	e0ffff17 	ldw	r3,-4(fp)
    3c4c:	1885883a 	add	r2,r3,r2
    3c50:	10800003 	ldbu	r2,0(r2)
    3c54:	10803fcc 	andi	r2,r2,255
    3c58:	1080201c 	xori	r2,r2,128
    3c5c:	10bfe004 	addi	r2,r2,-128
    3c60:	10000a1e 	bne	r2,zero,3c8c <alt_find_file+0xe0>
        !memcmp (next->name, name, len))
    3c64:	e0bffd17 	ldw	r2,-12(fp)
    3c68:	10800217 	ldw	r2,8(r2)
    3c6c:	e0fffe17 	ldw	r3,-8(fp)
    3c70:	180d883a 	mov	r6,r3
    3c74:	e17fff17 	ldw	r5,-4(fp)
    3c78:	1009883a 	mov	r4,r2
    3c7c:	0003eec0 	call	3eec <memcmp>
    if (next->name[len-1] == '/')
    {
      len -= 1;
    }

    if (((name[len] == '/') || (name[len] == '\0')) && 
    3c80:	1000021e 	bne	r2,zero,3c8c <alt_find_file+0xe0>
        !memcmp (next->name, name, len))
    {
      /* match found */

      return next;
    3c84:	e0bffd17 	ldw	r2,-12(fp)
    3c88:	00000806 	br	3cac <alt_find_file+0x100>
    }
    next = (alt_dev*) next->llist.next;
    3c8c:	e0bffd17 	ldw	r2,-12(fp)
    3c90:	10800017 	ldw	r2,0(r2)
    3c94:	e0bffd15 	stw	r2,-12(fp)
  /*
   * Check each list entry in turn, until a match is found, or we reach the
   * end of the list (i.e. next winds up pointing back to the list head).
   */ 
 
  while (next != (alt_dev*) &alt_fs_list)
    3c98:	e0fffd17 	ldw	r3,-12(fp)
    3c9c:	00800034 	movhi	r2,0
    3ca0:	10976f04 	addi	r2,r2,23996
    3ca4:	18bfcb1e 	bne	r3,r2,3bd4 <__alt_mem_VGA_Subsystem_Char_Buf_Subsystem_Onchip_SRAM+0xf7003bd4>
    next = (alt_dev*) next->llist.next;
  }
  
  /* No match found */
  
  return NULL;     
    3ca8:	0005883a 	mov	r2,zero
}
    3cac:	e037883a 	mov	sp,fp
    3cb0:	dfc00117 	ldw	ra,4(sp)
    3cb4:	df000017 	ldw	fp,0(sp)
    3cb8:	dec00204 	addi	sp,sp,8
    3cbc:	f800283a 	ret

00003cc0 <alt_get_fd>:
 * the offset of the file descriptor within the file descriptor array). A
 * negative value indicates failure.
 */

int alt_get_fd (alt_dev* dev)
{
    3cc0:	defffc04 	addi	sp,sp,-16
    3cc4:	df000315 	stw	fp,12(sp)
    3cc8:	df000304 	addi	fp,sp,12
    3ccc:	e13fff15 	stw	r4,-4(fp)
  alt_32 i;
  int rc = -EMFILE;
    3cd0:	00bffa04 	movi	r2,-24
    3cd4:	e0bffe15 	stw	r2,-8(fp)
   * indicates the highest file descriptor ever allocated. This is used to
   * improve efficency when searching the file descriptor list, and 
   * therefore reduce contention on the alt_fd_list_lock semaphore. 
   */

  for (i = 0; i < ALT_MAX_FD; i++)
    3cd8:	e03ffd15 	stw	zero,-12(fp)
    3cdc:	00001d06 	br	3d54 <alt_get_fd+0x94>
  {
    if (!alt_fd_list[i].dev)
    3ce0:	00800034 	movhi	r2,0
    3ce4:	10960504 	addi	r2,r2,22548
    3ce8:	e0fffd17 	ldw	r3,-12(fp)
    3cec:	18c00324 	muli	r3,r3,12
    3cf0:	10c5883a 	add	r2,r2,r3
    3cf4:	10800017 	ldw	r2,0(r2)
    3cf8:	1000131e 	bne	r2,zero,3d48 <alt_get_fd+0x88>
    {
      alt_fd_list[i].dev = dev;
    3cfc:	00800034 	movhi	r2,0
    3d00:	10960504 	addi	r2,r2,22548
    3d04:	e0fffd17 	ldw	r3,-12(fp)
    3d08:	18c00324 	muli	r3,r3,12
    3d0c:	10c5883a 	add	r2,r2,r3
    3d10:	e0ffff17 	ldw	r3,-4(fp)
    3d14:	10c00015 	stw	r3,0(r2)
      if (i > alt_max_fd)
    3d18:	00800034 	movhi	r2,0
    3d1c:	10977304 	addi	r2,r2,24012
    3d20:	10c00017 	ldw	r3,0(r2)
    3d24:	e0bffd17 	ldw	r2,-12(fp)
    3d28:	1880040e 	bge	r3,r2,3d3c <alt_get_fd+0x7c>
      {
        alt_max_fd = i;
    3d2c:	00800034 	movhi	r2,0
    3d30:	10977304 	addi	r2,r2,24012
    3d34:	e0fffd17 	ldw	r3,-12(fp)
    3d38:	10c00015 	stw	r3,0(r2)
      }
      rc = i;
    3d3c:	e0bffd17 	ldw	r2,-12(fp)
    3d40:	e0bffe15 	stw	r2,-8(fp)
      goto alt_get_fd_exit;
    3d44:	00000606 	br	3d60 <alt_get_fd+0xa0>
   * indicates the highest file descriptor ever allocated. This is used to
   * improve efficency when searching the file descriptor list, and 
   * therefore reduce contention on the alt_fd_list_lock semaphore. 
   */

  for (i = 0; i < ALT_MAX_FD; i++)
    3d48:	e0bffd17 	ldw	r2,-12(fp)
    3d4c:	10800044 	addi	r2,r2,1
    3d50:	e0bffd15 	stw	r2,-12(fp)
    3d54:	e0bffd17 	ldw	r2,-12(fp)
    3d58:	10800810 	cmplti	r2,r2,32
    3d5c:	103fe01e 	bne	r2,zero,3ce0 <__alt_mem_VGA_Subsystem_Char_Buf_Subsystem_Onchip_SRAM+0xf7003ce0>
   * file descriptor pool.
   */

  ALT_SEM_POST(alt_fd_list_lock);

  return rc;
    3d60:	e0bffe17 	ldw	r2,-8(fp)
}
    3d64:	e037883a 	mov	sp,fp
    3d68:	df000017 	ldw	fp,0(sp)
    3d6c:	dec00104 	addi	sp,sp,4
    3d70:	f800283a 	ret

00003d74 <alt_icache_flush>:
 * alt_icache_flush() is called to flush the instruction cache for a memory
 * region of length "len" bytes, starting at address "start".
 */

void alt_icache_flush (void* start, alt_u32 len)
{
    3d74:	defffb04 	addi	sp,sp,-20
    3d78:	df000415 	stw	fp,16(sp)
    3d7c:	df000404 	addi	fp,sp,16
    3d80:	e13ffe15 	stw	r4,-8(fp)
    3d84:	e17fff15 	stw	r5,-4(fp)

  /*
   * This is the most we would ever need to flush.
   */
 
  if (len > NIOS2_ICACHE_SIZE)
    3d88:	e0bfff17 	ldw	r2,-4(fp)
    3d8c:	10840070 	cmpltui	r2,r2,4097
    3d90:	1000021e 	bne	r2,zero,3d9c <alt_icache_flush+0x28>
  {
    len = NIOS2_ICACHE_SIZE;
    3d94:	00840004 	movi	r2,4096
    3d98:	e0bfff15 	stw	r2,-4(fp)
  }

  end = ((char*) start) + len;
    3d9c:	e0fffe17 	ldw	r3,-8(fp)
    3da0:	e0bfff17 	ldw	r2,-4(fp)
    3da4:	1885883a 	add	r2,r3,r2
    3da8:	e0bffd15 	stw	r2,-12(fp)

  for (i = start; i < end; i+= NIOS2_ICACHE_LINE_SIZE)
    3dac:	e0bffe17 	ldw	r2,-8(fp)
    3db0:	e0bffc15 	stw	r2,-16(fp)
    3db4:	00000506 	br	3dcc <alt_icache_flush+0x58>
  { 
    __asm__ volatile ("flushi %0" :: "r" (i)); 
    3db8:	e0bffc17 	ldw	r2,-16(fp)
    3dbc:	1000603a 	flushi	r2
    len = NIOS2_ICACHE_SIZE;
  }

  end = ((char*) start) + len;

  for (i = start; i < end; i+= NIOS2_ICACHE_LINE_SIZE)
    3dc0:	e0bffc17 	ldw	r2,-16(fp)
    3dc4:	10800804 	addi	r2,r2,32
    3dc8:	e0bffc15 	stw	r2,-16(fp)
    3dcc:	e0fffc17 	ldw	r3,-16(fp)
    3dd0:	e0bffd17 	ldw	r2,-12(fp)
    3dd4:	18bff836 	bltu	r3,r2,3db8 <__alt_mem_VGA_Subsystem_Char_Buf_Subsystem_Onchip_SRAM+0xf7003db8>
   * For an unaligned flush request, we've got one more line left.
   * Note that this is dependent on NIOS2_ICACHE_LINE_SIZE to be a 
   * multiple of 2 (which it always is).
   */

  if (((alt_u32) start) & (NIOS2_ICACHE_LINE_SIZE - 1))
    3dd8:	e0bffe17 	ldw	r2,-8(fp)
    3ddc:	108007cc 	andi	r2,r2,31
    3de0:	10000226 	beq	r2,zero,3dec <alt_icache_flush+0x78>
  {
    __asm__ volatile ("flushi %0" :: "r" (i));
    3de4:	e0bffc17 	ldw	r2,-16(fp)
    3de8:	1000603a 	flushi	r2
  /* 
   * Having flushed the cache, flush any stale instructions in the 
   * pipeline 
   */

  __asm__ volatile ("flushp");
    3dec:	0000203a 	flushp

#endif /* NIOS2_ICACHE_SIZE > 0 */
}
    3df0:	0001883a 	nop
    3df4:	e037883a 	mov	sp,fp
    3df8:	df000017 	ldw	fp,0(sp)
    3dfc:	dec00104 	addi	sp,sp,4
    3e00:	f800283a 	ret

00003e04 <alt_exception_cause_generated_bad_addr>:
 * Return: 1: BADADDR (bad_addr argument to handler) is valid
 *         0: BADADDR is not valid
 */
int 
alt_exception_cause_generated_bad_addr(alt_exception_cause cause)
{
    3e04:	defffe04 	addi	sp,sp,-8
    3e08:	df000115 	stw	fp,4(sp)
    3e0c:	df000104 	addi	fp,sp,4
    3e10:	e13fff15 	stw	r4,-4(fp)
  switch (cause) {
    3e14:	e0bfff17 	ldw	r2,-4(fp)
    3e18:	10bffe84 	addi	r2,r2,-6
    3e1c:	10c00428 	cmpgeui	r3,r2,16
    3e20:	18001a1e 	bne	r3,zero,3e8c <alt_exception_cause_generated_bad_addr+0x88>
    3e24:	100690ba 	slli	r3,r2,2
    3e28:	00800034 	movhi	r2,0
    3e2c:	108f8f04 	addi	r2,r2,15932
    3e30:	1885883a 	add	r2,r3,r2
    3e34:	10800017 	ldw	r2,0(r2)
    3e38:	1000683a 	jmp	r2
    3e3c:	00003e7c 	xorhi	zero,zero,249
    3e40:	00003e7c 	xorhi	zero,zero,249
    3e44:	00003e8c 	andi	zero,zero,250
    3e48:	00003e8c 	andi	zero,zero,250
    3e4c:	00003e8c 	andi	zero,zero,250
    3e50:	00003e7c 	xorhi	zero,zero,249
    3e54:	00003e84 	movi	zero,250
    3e58:	00003e8c 	andi	zero,zero,250
    3e5c:	00003e7c 	xorhi	zero,zero,249
    3e60:	00003e7c 	xorhi	zero,zero,249
    3e64:	00003e8c 	andi	zero,zero,250
    3e68:	00003e7c 	xorhi	zero,zero,249
    3e6c:	00003e84 	movi	zero,250
    3e70:	00003e8c 	andi	zero,zero,250
    3e74:	00003e8c 	andi	zero,zero,250
    3e78:	00003e7c 	xorhi	zero,zero,249
  case NIOS2_EXCEPTION_MISALIGNED_TARGET_PC:
  case NIOS2_EXCEPTION_TLB_READ_PERM_VIOLATION:
  case NIOS2_EXCEPTION_TLB_WRITE_PERM_VIOLATION:
  case NIOS2_EXCEPTION_MPU_DATA_REGION_VIOLATION:
  case NIOS2_EXCEPTION_ECC_DATA_ERR:
    return 1;
    3e7c:	00800044 	movi	r2,1
    3e80:	00000306 	br	3e90 <alt_exception_cause_generated_bad_addr+0x8c>

  case NIOS2_EXCEPTION_TLB_MISS:
  case NIOS2_EXCEPTION_ECC_TLB_ERR:
    return 0;
    3e84:	0005883a 	mov	r2,zero
    3e88:	00000106 	br	3e90 <alt_exception_cause_generated_bad_addr+0x8c>

  default:
    return 0;
    3e8c:	0005883a 	mov	r2,zero
  }
}
    3e90:	e037883a 	mov	sp,fp
    3e94:	df000017 	ldw	fp,0(sp)
    3e98:	dec00104 	addi	sp,sp,4
    3e9c:	f800283a 	ret

00003ea0 <atexit>:
    3ea0:	200b883a 	mov	r5,r4
    3ea4:	000f883a 	mov	r7,zero
    3ea8:	000d883a 	mov	r6,zero
    3eac:	0009883a 	mov	r4,zero
    3eb0:	00040001 	jmpi	4000 <__register_exitproc>

00003eb4 <exit>:
    3eb4:	defffe04 	addi	sp,sp,-8
    3eb8:	000b883a 	mov	r5,zero
    3ebc:	dc000015 	stw	r16,0(sp)
    3ec0:	dfc00115 	stw	ra,4(sp)
    3ec4:	2021883a 	mov	r16,r4
    3ec8:	00041180 	call	4118 <__call_exitprocs>
    3ecc:	00800034 	movhi	r2,0
    3ed0:	10977704 	addi	r2,r2,24028
    3ed4:	11000017 	ldw	r4,0(r2)
    3ed8:	20800f17 	ldw	r2,60(r4)
    3edc:	10000126 	beq	r2,zero,3ee4 <exit+0x30>
    3ee0:	103ee83a 	callr	r2
    3ee4:	8009883a 	mov	r4,r16
    3ee8:	00042980 	call	4298 <_exit>

00003eec <memcmp>:
    3eec:	01c000c4 	movi	r7,3
    3ef0:	3980192e 	bgeu	r7,r6,3f58 <memcmp+0x6c>
    3ef4:	2144b03a 	or	r2,r4,r5
    3ef8:	11c4703a 	and	r2,r2,r7
    3efc:	10000f26 	beq	r2,zero,3f3c <memcmp+0x50>
    3f00:	20800003 	ldbu	r2,0(r4)
    3f04:	28c00003 	ldbu	r3,0(r5)
    3f08:	10c0151e 	bne	r2,r3,3f60 <memcmp+0x74>
    3f0c:	31bfff84 	addi	r6,r6,-2
    3f10:	01ffffc4 	movi	r7,-1
    3f14:	00000406 	br	3f28 <memcmp+0x3c>
    3f18:	20800003 	ldbu	r2,0(r4)
    3f1c:	28c00003 	ldbu	r3,0(r5)
    3f20:	31bfffc4 	addi	r6,r6,-1
    3f24:	10c00e1e 	bne	r2,r3,3f60 <memcmp+0x74>
    3f28:	21000044 	addi	r4,r4,1
    3f2c:	29400044 	addi	r5,r5,1
    3f30:	31fff91e 	bne	r6,r7,3f18 <__alt_mem_VGA_Subsystem_Char_Buf_Subsystem_Onchip_SRAM+0xf7003f18>
    3f34:	0005883a 	mov	r2,zero
    3f38:	f800283a 	ret
    3f3c:	20c00017 	ldw	r3,0(r4)
    3f40:	28800017 	ldw	r2,0(r5)
    3f44:	18bfee1e 	bne	r3,r2,3f00 <__alt_mem_VGA_Subsystem_Char_Buf_Subsystem_Onchip_SRAM+0xf7003f00>
    3f48:	31bfff04 	addi	r6,r6,-4
    3f4c:	21000104 	addi	r4,r4,4
    3f50:	29400104 	addi	r5,r5,4
    3f54:	39bff936 	bltu	r7,r6,3f3c <__alt_mem_VGA_Subsystem_Char_Buf_Subsystem_Onchip_SRAM+0xf7003f3c>
    3f58:	303fe91e 	bne	r6,zero,3f00 <__alt_mem_VGA_Subsystem_Char_Buf_Subsystem_Onchip_SRAM+0xf7003f00>
    3f5c:	003ff506 	br	3f34 <__alt_mem_VGA_Subsystem_Char_Buf_Subsystem_Onchip_SRAM+0xf7003f34>
    3f60:	10c5c83a 	sub	r2,r2,r3
    3f64:	f800283a 	ret

00003f68 <strlen>:
    3f68:	208000cc 	andi	r2,r4,3
    3f6c:	10002026 	beq	r2,zero,3ff0 <strlen+0x88>
    3f70:	20800007 	ldb	r2,0(r4)
    3f74:	10002026 	beq	r2,zero,3ff8 <strlen+0x90>
    3f78:	2005883a 	mov	r2,r4
    3f7c:	00000206 	br	3f88 <strlen+0x20>
    3f80:	10c00007 	ldb	r3,0(r2)
    3f84:	18001826 	beq	r3,zero,3fe8 <strlen+0x80>
    3f88:	10800044 	addi	r2,r2,1
    3f8c:	10c000cc 	andi	r3,r2,3
    3f90:	183ffb1e 	bne	r3,zero,3f80 <__alt_mem_VGA_Subsystem_Char_Buf_Subsystem_Onchip_SRAM+0xf7003f80>
    3f94:	10c00017 	ldw	r3,0(r2)
    3f98:	01ffbff4 	movhi	r7,65279
    3f9c:	39ffbfc4 	addi	r7,r7,-257
    3fa0:	00ca303a 	nor	r5,zero,r3
    3fa4:	01a02074 	movhi	r6,32897
    3fa8:	19c7883a 	add	r3,r3,r7
    3fac:	31a02004 	addi	r6,r6,-32640
    3fb0:	1946703a 	and	r3,r3,r5
    3fb4:	1986703a 	and	r3,r3,r6
    3fb8:	1800091e 	bne	r3,zero,3fe0 <strlen+0x78>
    3fbc:	10800104 	addi	r2,r2,4
    3fc0:	10c00017 	ldw	r3,0(r2)
    3fc4:	19cb883a 	add	r5,r3,r7
    3fc8:	00c6303a 	nor	r3,zero,r3
    3fcc:	28c6703a 	and	r3,r5,r3
    3fd0:	1986703a 	and	r3,r3,r6
    3fd4:	183ff926 	beq	r3,zero,3fbc <__alt_mem_VGA_Subsystem_Char_Buf_Subsystem_Onchip_SRAM+0xf7003fbc>
    3fd8:	00000106 	br	3fe0 <strlen+0x78>
    3fdc:	10800044 	addi	r2,r2,1
    3fe0:	10c00007 	ldb	r3,0(r2)
    3fe4:	183ffd1e 	bne	r3,zero,3fdc <__alt_mem_VGA_Subsystem_Char_Buf_Subsystem_Onchip_SRAM+0xf7003fdc>
    3fe8:	1105c83a 	sub	r2,r2,r4
    3fec:	f800283a 	ret
    3ff0:	2005883a 	mov	r2,r4
    3ff4:	003fe706 	br	3f94 <__alt_mem_VGA_Subsystem_Char_Buf_Subsystem_Onchip_SRAM+0xf7003f94>
    3ff8:	0005883a 	mov	r2,zero
    3ffc:	f800283a 	ret

00004000 <__register_exitproc>:
    4000:	defffa04 	addi	sp,sp,-24
    4004:	dc000315 	stw	r16,12(sp)
    4008:	04000034 	movhi	r16,0
    400c:	84177704 	addi	r16,r16,24028
    4010:	80c00017 	ldw	r3,0(r16)
    4014:	dc400415 	stw	r17,16(sp)
    4018:	dfc00515 	stw	ra,20(sp)
    401c:	18805217 	ldw	r2,328(r3)
    4020:	2023883a 	mov	r17,r4
    4024:	10003726 	beq	r2,zero,4104 <__register_exitproc+0x104>
    4028:	10c00117 	ldw	r3,4(r2)
    402c:	010007c4 	movi	r4,31
    4030:	20c00e16 	blt	r4,r3,406c <__register_exitproc+0x6c>
    4034:	1a000044 	addi	r8,r3,1
    4038:	8800221e 	bne	r17,zero,40c4 <__register_exitproc+0xc4>
    403c:	18c00084 	addi	r3,r3,2
    4040:	18c7883a 	add	r3,r3,r3
    4044:	18c7883a 	add	r3,r3,r3
    4048:	12000115 	stw	r8,4(r2)
    404c:	10c7883a 	add	r3,r2,r3
    4050:	19400015 	stw	r5,0(r3)
    4054:	0005883a 	mov	r2,zero
    4058:	dfc00517 	ldw	ra,20(sp)
    405c:	dc400417 	ldw	r17,16(sp)
    4060:	dc000317 	ldw	r16,12(sp)
    4064:	dec00604 	addi	sp,sp,24
    4068:	f800283a 	ret
    406c:	00800034 	movhi	r2,0
    4070:	10800004 	addi	r2,r2,0
    4074:	10002626 	beq	r2,zero,4110 <__register_exitproc+0x110>
    4078:	01006404 	movi	r4,400
    407c:	d9400015 	stw	r5,0(sp)
    4080:	d9800115 	stw	r6,4(sp)
    4084:	d9c00215 	stw	r7,8(sp)
    4088:	00000000 	call	0 <__reset>
    408c:	d9400017 	ldw	r5,0(sp)
    4090:	d9800117 	ldw	r6,4(sp)
    4094:	d9c00217 	ldw	r7,8(sp)
    4098:	10001d26 	beq	r2,zero,4110 <__register_exitproc+0x110>
    409c:	81000017 	ldw	r4,0(r16)
    40a0:	10000115 	stw	zero,4(r2)
    40a4:	02000044 	movi	r8,1
    40a8:	22405217 	ldw	r9,328(r4)
    40ac:	0007883a 	mov	r3,zero
    40b0:	12400015 	stw	r9,0(r2)
    40b4:	20805215 	stw	r2,328(r4)
    40b8:	10006215 	stw	zero,392(r2)
    40bc:	10006315 	stw	zero,396(r2)
    40c0:	883fde26 	beq	r17,zero,403c <__alt_mem_VGA_Subsystem_Char_Buf_Subsystem_Onchip_SRAM+0xf700403c>
    40c4:	18c9883a 	add	r4,r3,r3
    40c8:	2109883a 	add	r4,r4,r4
    40cc:	1109883a 	add	r4,r2,r4
    40d0:	21802215 	stw	r6,136(r4)
    40d4:	01800044 	movi	r6,1
    40d8:	12406217 	ldw	r9,392(r2)
    40dc:	30cc983a 	sll	r6,r6,r3
    40e0:	4992b03a 	or	r9,r9,r6
    40e4:	12406215 	stw	r9,392(r2)
    40e8:	21c04215 	stw	r7,264(r4)
    40ec:	01000084 	movi	r4,2
